Certificate:
    Data:
        Version: 3 (0x2)
        Serial Number: 0 (0x0)
        Signature Algorithm: sha1WithRSAEncryption
        Issuer: C=GB, O=Certificate Transparency CA, ST=Wales, L=Erw Wen
        Validity
            Not Before: Jun  1 00:00:00 2012 GMT
            Not After : Jun  1 00:00:00 2022 GMT
        Subject: C=GB, O=Certificate Transparency CA, ST=Wales, L=Erw Wen
        Subject Public Key Info:
            Public Key Algorithm: rsaEncryption
            RSA Public Key: (1024 bit)
                Modulus (1024 bit):
                    00:b7:1c:ff:9f:92:60:41:a3:53:83:c5:f0:d0:de:
                    a9:43:a6:18:dd:22:9c:6a:d9:0a:8d:dc:51:e7:37:
                    99:25:61:85:98:e8:6d:14:8c:fd:a2:ea:25:b1:b1:
                    bc:b3:ed:39:f5:30:25:b3:04:44:99:e1:0f:4a:1e:
                    0d:43:c1:3c:d3:8c:e7:e4:0f:4c:19:aa:8a:72:64:
                    7f:a5:d5:61:16:7f:50:08:a2:a8:d5:88:2d:c2:5c:
                    0b:88:ba:77:f1:b8:14:90:96:b1:aa:6a:ec:93:3f:
                    bc:7f:36:ec:4f:75:82:e2:7b:ef:61:86:3c:30:d3:
                    0b:f4:04:80:d2:2b:00:6e:db
                Exponent: 65537 (0x10001)
        X509v3 extensions:
            X509v3 Subject Key Identifier: 
                B3:F6:3C:85:31:9B:1B:E4:1D:CD:FA:15:FF:18:13:84:DC:6E:18:EF
            X509v3 Authority Key Identifier: 
                keyid:B3:F6:3C:85:31:9B:1B:E4:1D:CD:FA:15:FF:18:13:84:DC:6E:18:EF
                DirName:/C=GB/O=Certificate Transparency CA/ST=Wales/L=Erw Wen
                serial:00

            X509v3 Basic Constraints: 
                CA:TRUE
    Signature Algorithm: sha1WithRSAEncryption
        a8:21:a3:d5:a8:f0:12:9d:97:12:07:e9:06:a2:20:d6:3d:f2:
        02:6f:fb:07:63:df:3b:86:e5:af:2a:33:6f:52:03:84:3a:70:
        29:57:b1:7c:74:9d:6a:9e:94:78:9c:6f:c8:7a:1b:41:c9:59:
        3c:a9:02:24:5b:a4:6c:5e:29:9f:5c:c4:4f:d0:a9:36:06:75:
        81:78:43:01:07:cc:81:c2:84:30:be:d3:8e:23:a3:99:14:12:
        78:db:83:d9:98:50:f3:de:36:0e:e3:77:50:64:6f:d1:7b:71:
        c7:39:7f:6a:a3:a9:28:cd:2d:e2:17:98:24:62:07:7a:e5:b9:
        fe:13
-----BEGIN CERTIFICATE-----
MIIC0DCCAjmgAwIBAgIBADANBgkqhkiG9w0BAQUFADBVMQswCQYDVQQGEwJHQjEk
MCIGA1UEChMbQ2VydGlmaWNhdGUgVHJhbnNwYXJlbmN5IENBMQ4wDAYDVQQIEwVX
YWxlczEQMA4GA1UEBxMHRXJ3IFdlbjAeFw0xMjA2MDEwMDAwMDBaFw0yMjA2MDEw
MDAwMDBaMFUxCzAJBgNVBAYTAkdCMSQwIgYDVQQKExtDZXJ0aWZpY2F0ZSBUcmFu
c3BhcmVuY3kgQ0ExDjAMBgNVBAgTBVdhbGVzMRAwDgYDVQQHEwdFcncgV2VuMIGf
MA0GCSqGSIb3DQEBAQUAA4GNADCBiQKBgQC3HP+fkmBBo1ODxfDQ3qlDphjdIpxq
2QqN3FHnN5klYYWY6G0UjP2i6iWxsbyz7Tn1MCWzBESZ4Q9KHg1DwTzTjOfkD0wZ
qopyZH+l1WEWf1AIoqjViC3CXAuIunfxuBSQlrGqauyTP7x/NuxPdYLie+9hhjww
0wv0BIDSKwBu2wIDAQABo4GvMIGsMB0GA1UdDgQWBBSz9jyFMZsb5B3N+hX/GBOE
3G4Y7zB9BgNVHSMEdjB0gBSz9jyFMZsb5B3N+hX/GBOE3G4Y76FZpFcwVTELMAkG
A1UEBhMCR0IxJDAiBgNVBAoTG0NlcnRpZmljYXRlIFRyYW5zcGFyZW5jeSBDQTEO
MAwGA1UECBMFV2FsZXMxEDAOBgNVBAcTB0VydyBXZW6CAQAwDAYDVR0TBAUwAwEB
/zANBgkqhkiG9w0BAQUFAAOBgQCoIaPVqPASnZcSB+kGoiDWPfICb/sHY987huWv
KjNvUgOEOnApV7F8dJ1qnpR4nG/IehtByVk8qQIkW6RsXimfXMRP0Kk2BnWBeEMB
B8yBwoQwvtOOI6OZFBJ424PZmFDz3jYO43dQZG/Re3HHOX9qo6kozS3iF5gkYgd6
5bn+Ew==
-----END CERTIFICATE-----
