Certificate:
    Data:
        Version: 3 (0x2)
        Serial Number: 0 (0x0)
    Signature Algorithm: sha1WithRSAEncryption
        Issuer: C=GB, O=Certificate Transparency CA, ST=Wales, L=Erw Wen
        Validity
            Not Before: Jun  1 00:00:00 2012 GMT
            Not After : Jun  1 00:00:00 2022 GMT
        Subject: C=GB, O=Certificate Transparency CA, ST=Wales, L=Erw Wen
        Subject Public Key Info:
            Public Key Algorithm: rsaEncryption
                Public-Key: (1024 bit)
                Modulus:
                    00:d6:42:46:b8:ec:f5:96:da:9f:9b:51:11:ab:f6:
                    24:3a:71:49:b8:04:98:a6:2d:bf:1e:b3:16:a8:90:
                    37:0e:07:40:45:35:b6:28:f3:be:5c:89:ad:da:11:
                    9a:30:e6:29:40:1f:d0:1e:b8:ff:7f:70:40:54:18:
                    72:cb:bb:cf:d5:1e:fa:c0:52:cf:a1:c9:43:4d:9c:
                    eb:bb:38:0d:4d:8f:6b:a9:bb:eb:02:99:91:54:a9:
                    e6:d3:3a:71:18:4d:2f:e7:ad:4f:6f:b3:c4:45:02:
                    f3:0b:fb:9e:63:a1:be:57:ec:42:a9:b2:78:19:39:
                    ca:b9:a7:0e:3a:38:c2:a0:03
                Exponent: 65537 (0x10001)
        X509v3 extensions:
            X509v3 Subject Key Identifier: 
                36:33:12:99:DB:DC:38:9D:1C:CC:FE:31:C0:8B:89:32:50:1A:8F:7C
            X509v3 Authority Key Identifier: 
                keyid:36:33:12:99:DB:DC:38:9D:1C:CC:FE:31:C0:8B:89:32:50:1A:8F:7C
                DirName:/C=GB/O=Certificate Transparency CA/ST=Wales/L=Erw Wen
                serial:00

            X509v3 Basic Constraints: 
                CA:TRUE
    Signature Algorithm: sha1WithRSAEncryption
         3a:0d:15:85:e8:e3:dd:84:d3:65:09:7c:77:bc:5c:cf:7d:23:
         18:5a:ba:df:de:3f:0e:43:a6:e8:90:98:91:8d:19:44:d7:d2:
         71:7f:a6:8d:86:66:d8:6f:af:95:ae:aa:82:8e:c3:ba:26:f4:
         68:7c:c1:7f:b2:0b:4e:c5:b3:8a:43:71:9b:46:47:fb:ba:20:
         29:90:2e:eb:e2:27:e7:ff:7f:7b:41:cc:2f:7f:22:52:87:55:
         44:b6:47:5d:d7:ef:f0:38:25:cc:6c:9f:db:42:17:eb:65:ea:
         4c:89:09:45:c3:ec:36:d1:c0:d0:4b:ba:c9:cf:fc:72:7d:13:
         5c:70
-----BEGIN CERTIFICATE-----
MIIC0DCCAjmgAwIBAgIBADANBgkqhkiG9w0BAQUFADBVMQswCQYDVQQGEwJHQjEk
MCIGA1UEChMbQ2VydGlmaWNhdGUgVHJhbnNwYXJlbmN5IENBMQ4wDAYDVQQIEwVX
YWxlczEQMA4GA1UEBxMHRXJ3IFdlbjAeFw0xMjA2MDEwMDAwMDBaFw0yMjA2MDEw
MDAwMDBaMFUxCzAJBgNVBAYTAkdCMSQwIgYDVQQKExtDZXJ0aWZpY2F0ZSBUcmFu
c3BhcmVuY3kgQ0ExDjAMBgNVBAgTBVdhbGVzMRAwDgYDVQQHEwdFcncgV2VuMIGf
MA0GCSqGSIb3DQEBAQUAA4GNADCBiQKBgQDWQka47PWW2p+bURGr9iQ6cUm4BJim
Lb8esxaokDcOB0BFNbYo875cia3aEZow5ilAH9AeuP9/cEBUGHLLu8/VHvrAUs+h
yUNNnOu7OA1Nj2upu+sCmZFUqebTOnEYTS/nrU9vs8RFAvML+55job5X7EKpsngZ
Ocq5pw46OMKgAwIDAQABo4GvMIGsMB0GA1UdDgQWBBQ2MxKZ29w4nRzM/jHAi4ky
UBqPfDB9BgNVHSMEdjB0gBQ2MxKZ29w4nRzM/jHAi4kyUBqPfKFZpFcwVTELMAkG
A1UEBhMCR0IxJDAiBgNVBAoTG0NlcnRpZmljYXRlIFRyYW5zcGFyZW5jeSBDQTEO
MAwGA1UECBMFV2FsZXMxEDAOBgNVBAcTB0VydyBXZW6CAQAwDAYDVR0TBAUwAwEB
/zANBgkqhkiG9w0BAQUFAAOBgQA6DRWF6OPdhNNlCXx3vFzPfSMYWrrf3j8OQ6bo
kJiRjRlE19Jxf6aNhmbYb6+VrqqCjsO6JvRofMF/sgtOxbOKQ3GbRkf7uiApkC7r
4ifn/397QcwvfyJSh1VEtkdd1+/wOCXMbJ/bQhfrZepMiQlFw+w20cDQS7rJz/xy
fRNccA==
-----END CERTIFICATE-----
