Certificate:
    Data:
        Version: 3 (0x2)
        Serial Number: 0 (0x0)
        Signature Algorithm: sha1WithRSAEncryption
        Issuer: C=GB, O=Certificate Transparency CA, ST=Wales, L=Erw Wen
        Validity
            Not Before: Jun  1 00:00:00 2012 GMT
            Not After : Jun  1 00:00:00 2022 GMT
        Subject: C=GB, O=Certificate Transparency CA, ST=Wales, L=Erw Wen
        Subject Public Key Info:
            Public Key Algorithm: rsaEncryption
            RSA Public Key: (1024 bit)
                Modulus (1024 bit):
                    00:9c:1e:94:cd:a2:8b:52:b4:df:00:59:ff:c2:b9:
                    58:38:0a:75:25:1c:30:e9:67:7f:e2:c2:80:e7:f9:
                    ca:11:0a:e6:47:89:91:38:9f:e0:2d:79:03:d0:e8:
                    75:e3:0c:ee:dc:d2:59:fe:7c:e0:e2:91:ce:89:7a:
                    83:23:22:c9:06:1d:ae:55:9b:e3:d2:18:71:ff:b1:
                    65:e3:d3:57:a5:06:99:cb:f3:72:73:5d:6a:4a:72:
                    15:26:30:6e:ef:bf:97:de:ff:16:db:5d:aa:13:a7:
                    7f:dc:77:a4:a4:1b:e7:f2:08:97:c9:43:7c:7b:b9:
                    9e:f2:58:84:2e:32:e3:91:ef
                Exponent: 65537 (0x10001)
        X509v3 extensions:
            X509v3 Subject Key Identifier: 
                A3:B8:D8:9B:A2:69:0D:FB:48:BB:BF:87:C1:03:9D:DC:E5:62:56:C6
            X509v3 Authority Key Identifier: 
                keyid:A3:B8:D8:9B:A2:69:0D:FB:48:BB:BF:87:C1:03:9D:DC:E5:62:56:C6
                DirName:/C=GB/O=Certificate Transparency CA/ST=Wales/L=Erw Wen
                serial:00

            X509v3 Basic Constraints: 
                CA:TRUE
    Signature Algorithm: sha1WithRSAEncryption
        58:15:28:c1:c0:f7:8b:7e:50:a0:06:37:58:b3:dd:cc:bd:5e:
        20:36:51:d2:05:90:2a:f1:f7:40:50:85:04:d1:f4:ce:08:3f:
        78:92:40:96:01:41:0d:00:95:da:f8:bb:48:a9:dd:5a:6c:d5:
        76:a5:ef:69:b0:c4:ff:93:fd:bd:22:cf:54:fb:a6:31:f2:bf:
        18:22:85:b1:12:f4:01:f2:6a:42:59:a1:ab:9d:64:2f:dd:88:
        69:ff:a8:bb:44:ad:bf:44:b9:b5:16:e8:76:07:c0:db:be:e6:
        74:54:30:9b:aa:10:e8:5d:4c:34:21:19:6c:d9:f0:72:89:f6:
        8d:55
-----BEGIN CERTIFICATE-----
MIIC0DCCAjmgAwIBAgIBADANBgkqhkiG9w0BAQUFADBVMQswCQYDVQQGEwJHQjEk
MCIGA1UEChMbQ2VydGlmaWNhdGUgVHJhbnNwYXJlbmN5IENBMQ4wDAYDVQQIEwVX
YWxlczEQMA4GA1UEBxMHRXJ3IFdlbjAeFw0xMjA2MDEwMDAwMDBaFw0yMjA2MDEw
MDAwMDBaMFUxCzAJBgNVBAYTAkdCMSQwIgYDVQQKExtDZXJ0aWZpY2F0ZSBUcmFu
c3BhcmVuY3kgQ0ExDjAMBgNVBAgTBVdhbGVzMRAwDgYDVQQHEwdFcncgV2VuMIGf
MA0GCSqGSIb3DQEBAQUAA4GNADCBiQKBgQCcHpTNootStN8AWf/CuVg4CnUlHDDp
Z3/iwoDn+coRCuZHiZE4n+AteQPQ6HXjDO7c0ln+fODikc6JeoMjIskGHa5Vm+PS
GHH/sWXj01elBpnL83JzXWpKchUmMG7vv5fe/xbbXaoTp3/cd6SkG+fyCJfJQ3x7
uZ7yWIQuMuOR7wIDAQABo4GvMIGsMB0GA1UdDgQWBBSjuNibomkN+0i7v4fBA53c
5WJWxjB9BgNVHSMEdjB0gBSjuNibomkN+0i7v4fBA53c5WJWxqFZpFcwVTELMAkG
A1UEBhMCR0IxJDAiBgNVBAoTG0NlcnRpZmljYXRlIFRyYW5zcGFyZW5jeSBDQTEO
MAwGA1UECBMFV2FsZXMxEDAOBgNVBAcTB0VydyBXZW6CAQAwDAYDVR0TBAUwAwEB
/zANBgkqhkiG9w0BAQUFAAOBgQBYFSjBwPeLflCgBjdYs93MvV4gNlHSBZAq8fdA
UIUE0fTOCD94kkCWAUENAJXa+LtIqd1abNV2pe9psMT/k/29Is9U+6Yx8r8YIoWx
EvQB8mpCWaGrnWQv3Yhp/6i7RK2/RLm1Fuh2B8DbvuZ0VDCbqhDoXUw0IRls2fBy
ifaNVQ==
-----END CERTIFICATE-----
