Certificate:
    Data:
        Version: 3 (0x2)
        Serial Number: 0 (0x0)
        Signature Algorithm: sha1WithRSAEncryption
        Issuer: C=GB, O=Certificate Transparency CA, ST=Wales, L=Erw Wen
        Validity
            Not Before: Jun  1 00:00:00 2012 GMT
            Not After : Jun  1 00:00:00 2022 GMT
        Subject: C=GB, O=Certificate Transparency CA, ST=Wales, L=Erw Wen
        Subject Public Key Info:
            Public Key Algorithm: rsaEncryption
            RSA Public Key: (1024 bit)
                Modulus (1024 bit):
                    00:f5:d7:92:3e:8f:c9:bb:bd:9b:62:bb:ab:f9:ba:
                    99:97:8e:ab:ba:03:71:5d:c7:e4:d0:6b:aa:0d:ba:
                    21:9b:00:2e:35:36:ab:c7:e0:5a:10:8b:8c:c0:a9:
                    0b:4f:6c:16:61:b3:f8:9a:e5:2c:c6:a6:a0:7f:5d:
                    cb:d1:97:54:6b:81:30:f3:c4:48:bd:10:64:f6:5d:
                    47:f3:e2:bc:15:1e:5a:5d:19:a6:66:00:e5:73:9b:
                    b6:5a:11:8a:5f:ef:c0:db:fa:4c:94:2e:6a:86:cb:
                    75:07:06:b8:2e:32:ff:1e:a4:c3:6a:12:90:8e:4e:
                    1b:f5:4f:0a:42:21:d6:2f:e3
                Exponent: 65537 (0x10001)
        X509v3 extensions:
            X509v3 Subject Key Identifier: 
                6F:D4:9B:2C:46:DD:97:71:FF:E4:3A:A6:09:44:6C:9B:19:62:7D:F8
            X509v3 Authority Key Identifier: 
                keyid:6F:D4:9B:2C:46:DD:97:71:FF:E4:3A:A6:09:44:6C:9B:19:62:7D:F8
                DirName:/C=GB/O=Certificate Transparency CA/ST=Wales/L=Erw Wen
                serial:00

            X509v3 Basic Constraints: 
                CA:TRUE
    Signature Algorithm: sha1WithRSAEncryption
        10:a2:d1:41:a7:a6:ae:56:8f:d8:34:83:83:d9:d1:23:33:54:
        d6:dd:44:66:82:17:bc:10:0c:ec:09:ce:ee:78:46:95:1f:20:
        56:bb:c0:9d:48:26:1f:8f:f9:64:5c:ec:e4:67:c2:9b:55:88:
        b7:03:c8:a1:a4:cd:85:2d:34:63:9e:e2:ee:fd:ab:6d:d0:ed:
        75:b2:0e:0a:4f:36:14:b5:54:07:15:b3:32:ca:54:7c:b3:22:
        9f:96:fa:47:7d:4b:98:bf:4e:30:bd:16:c2:99:24:08:3a:07:
        b2:13:6a:37:bc:5b:26:84:17:87:03:ef:f3:9f:8e:73:d4:bc:
        d0:76
-----BEGIN CERTIFICATE-----
MIIC0DCCAjmgAwIBAgIBADANBgkqhkiG9w0BAQUFADBVMQswCQYDVQQGEwJHQjEk
MCIGA1UEChMbQ2VydGlmaWNhdGUgVHJhbnNwYXJlbmN5IENBMQ4wDAYDVQQIEwVX
YWxlczEQMA4GA1UEBxMHRXJ3IFdlbjAeFw0xMjA2MDEwMDAwMDBaFw0yMjA2MDEw
MDAwMDBaMFUxCzAJBgNVBAYTAkdCMSQwIgYDVQQKExtDZXJ0aWZpY2F0ZSBUcmFu
c3BhcmVuY3kgQ0ExDjAMBgNVBAgTBVdhbGVzMRAwDgYDVQQHEwdFcncgV2VuMIGf
MA0GCSqGSIb3DQEBAQUAA4GNADCBiQKBgQD115I+j8m7vZtiu6v5upmXjqu6A3Fd
x+TQa6oNuiGbAC41NqvH4FoQi4zAqQtPbBZhs/ia5SzGpqB/XcvRl1RrgTDzxEi9
EGT2XUfz4rwVHlpdGaZmAOVzm7ZaEYpf78Db+kyULmqGy3UHBrguMv8epMNqEpCO
Thv1TwpCIdYv4wIDAQABo4GvMIGsMB0GA1UdDgQWBBRv1JssRt2Xcf/kOqYJRGyb
GWJ9+DB9BgNVHSMEdjB0gBRv1JssRt2Xcf/kOqYJRGybGWJ9+KFZpFcwVTELMAkG
A1UEBhMCR0IxJDAiBgNVBAoTG0NlcnRpZmljYXRlIFRyYW5zcGFyZW5jeSBDQTEO
MAwGA1UECBMFV2FsZXMxEDAOBgNVBAcTB0VydyBXZW6CAQAwDAYDVR0TBAUwAwEB
/zANBgkqhkiG9w0BAQUFAAOBgQAQotFBp6auVo/YNIOD2dEjM1TW3URmghe8EAzs
Cc7ueEaVHyBWu8CdSCYfj/lkXOzkZ8KbVYi3A8ihpM2FLTRjnuLu/att0O11sg4K
TzYUtVQHFbMyylR8syKflvpHfUuYv04wvRbCmSQIOgeyE2o3vFsmhBeHA+/zn45z
1LzQdg==
-----END CERTIFICATE-----
