Certificate:
    Data:
        Version: 3 (0x2)
        Serial Number: 0 (0x0)
        Signature Algorithm: sha1WithRSAEncryption
        Issuer: C=GB, O=Certificate Transparency CA, ST=Wales, L=Erw Wen
        Validity
            Not Before: Jun  1 00:00:00 2012 GMT
            Not After : Jun  1 00:00:00 2022 GMT
        Subject: C=GB, O=Certificate Transparency CA, ST=Wales, L=Erw Wen
        Subject Public Key Info:
            Public Key Algorithm: rsaEncryption
            RSA Public Key: (1024 bit)
                Modulus (1024 bit):
                    00:9d:61:63:ec:0e:d3:0a:9f:8f:70:54:d9:93:3b:
                    3f:10:38:48:7b:32:18:5d:b9:ab:2e:2d:7a:c4:21:
                    52:5e:79:63:a3:e4:ed:0d:25:aa:db:83:f9:47:e2:
                    cd:af:b1:a4:92:f4:10:ab:0c:26:a3:ed:0b:e6:7f:
                    04:aa:8a:94:6f:31:2d:27:5f:c5:63:16:ce:fe:67:
                    4b:c6:b1:4e:5d:04:fa:98:3e:50:4a:2d:53:0d:cb:
                    fe:48:b0:f7:e5:f3:62:74:af:b7:fe:a8:4f:20:b1:
                    2f:8d:df:99:8c:63:7a:0d:99:b1:ce:72:5f:ef:92:
                    8e:0f:d6:df:89:7b:bd:39:87
                Exponent: 65537 (0x10001)
        X509v3 extensions:
            X509v3 Subject Key Identifier: 
                D6:DD:1D:FD:55:90:F8:14:A3:B2:19:C4:1B:2C:D7:AA:43:A6:DA:6B
            X509v3 Authority Key Identifier: 
                keyid:D6:DD:1D:FD:55:90:F8:14:A3:B2:19:C4:1B:2C:D7:AA:43:A6:DA:6B
                DirName:/C=GB/O=Certificate Transparency CA/ST=Wales/L=Erw Wen
                serial:00

            X509v3 Basic Constraints: 
                CA:TRUE
    Signature Algorithm: sha1WithRSAEncryption
        99:8f:25:c1:c9:be:00:4b:65:ec:89:e1:df:7a:84:16:35:df:
        91:87:51:0f:77:d1:11:6e:2a:ce:e7:0e:de:7d:41:bb:17:c8:
        8c:a4:f5:f1:eb:fc:64:f8:3c:6c:b6:5e:68:26:ca:e1:a9:d6:
        b3:d7:bd:72:56:82:26:ef:24:16:28:65:11:d3:f4:c5:f0:8f:
        bc:59:bb:21:d4:2b:02:ad:40:99:06:14:69:cb:0b:c5:ae:07:
        84:56:89:64:03:bd:f2:b3:90:45:d5:c5:02:f0:1f:db:1b:ee:
        fc:ee:0c:14:08:8a:6e:d4:41:e1:6e:43:5c:49:04:9c:6b:a0:
        e2:b8
-----BEGIN CERTIFICATE-----
MIIC0DCCAjmgAwIBAgIBADANBgkqhkiG9w0BAQUFADBVMQswCQYDVQQGEwJHQjEk
MCIGA1UEChMbQ2VydGlmaWNhdGUgVHJhbnNwYXJlbmN5IENBMQ4wDAYDVQQIEwVX
YWxlczEQMA4GA1UEBxMHRXJ3IFdlbjAeFw0xMjA2MDEwMDAwMDBaFw0yMjA2MDEw
MDAwMDBaMFUxCzAJBgNVBAYTAkdCMSQwIgYDVQQKExtDZXJ0aWZpY2F0ZSBUcmFu
c3BhcmVuY3kgQ0ExDjAMBgNVBAgTBVdhbGVzMRAwDgYDVQQHEwdFcncgV2VuMIGf
MA0GCSqGSIb3DQEBAQUAA4GNADCBiQKBgQCdYWPsDtMKn49wVNmTOz8QOEh7Mhhd
uasuLXrEIVJeeWOj5O0NJarbg/lH4s2vsaSS9BCrDCaj7QvmfwSqipRvMS0nX8Vj
Fs7+Z0vGsU5dBPqYPlBKLVMNy/5IsPfl82J0r7f+qE8gsS+N35mMY3oNmbHOcl/v
ko4P1t+Je705hwIDAQABo4GvMIGsMB0GA1UdDgQWBBTW3R39VZD4FKOyGcQbLNeq
Q6baazB9BgNVHSMEdjB0gBTW3R39VZD4FKOyGcQbLNeqQ6baa6FZpFcwVTELMAkG
A1UEBhMCR0IxJDAiBgNVBAoTG0NlcnRpZmljYXRlIFRyYW5zcGFyZW5jeSBDQTEO
MAwGA1UECBMFV2FsZXMxEDAOBgNVBAcTB0VydyBXZW6CAQAwDAYDVR0TBAUwAwEB
/zANBgkqhkiG9w0BAQUFAAOBgQCZjyXByb4AS2XsieHfeoQWNd+Rh1EPd9ERbirO
5w7efUG7F8iMpPXx6/xk+Dxstl5oJsrhqdaz171yVoIm7yQWKGUR0/TF8I+8Wbsh
1CsCrUCZBhRpywvFrgeEVolkA73ys5BF1cUC8B/bG+787gwUCIpu1EHhbkNcSQSc
a6DiuA==
-----END CERTIFICATE-----
