Certificate:
    Data:
        Version: 3 (0x2)
        Serial Number: 1 (0x1)
        Signature Algorithm: sha1WithRSAEncryption
        Issuer: C=GB, O=Certificate Transparency CA, ST=Wales, L=Erw Wen
        Validity
            Not Before: Jun  1 00:00:00 2012 GMT
            Not After : Jun  1 00:00:00 2022 GMT
        Subject: C=GB, O=Certificate Transparency PreCA, ST=Wales, L=Erw Wen
        Subject Public Key Info:
            Public Key Algorithm: rsaEncryption
            RSA Public Key: (1024 bit)
                Modulus (1024 bit):
                    00:b0:69:c3:b5:d2:63:5b:d3:5a:fc:a9:df:aa:9a:
                    d1:2b:28:d9:12:11:7b:f8:a2:f7:e9:1b:34:de:03:
                    fb:41:93:17:14:12:65:7c:d2:55:87:71:01:39:16:
                    da:54:88:d0:05:4a:81:bb:7c:d4:d4:4b:00:f6:ea:
                    5d:ac:d5:07:43:cd:12:50:67:ca:fa:de:2b:a5:ee:
                    1e:48:59:33:14:38:8c:71:53:75:f6:66:58:af:ec:
                    85:98:bf:9d:6f:0b:c7:da:4c:c9:1d:bf:29:23:f1:
                    a2:7f:48:6c:c3:f7:a2:f1:bc:30:ea:dc:d9:13:2a:
                    83:87:81:de:0b:b3:24:43:95
                Exponent: 65537 (0x10001)
        X509v3 extensions:
            X509v3 Subject Key Identifier: 
                1C:D0:44:DF:41:8A:6A:73:61:7D:B2:73:0D:09:1A:50:5F:63:83:FC
            X509v3 Basic Constraints: critical
                CA:FALSE
            X509v3 Extended Key Usage: critical
                1.3.6.1.4.1.11129.2.4.4
            X509v3 Authority Key Identifier: 
                keyid:B3:F6:3C:85:31:9B:1B:E4:1D:CD:FA:15:FF:18:13:84:DC:6E:18:EF
                DirName:/C=GB/O=Certificate Transparency CA/ST=Wales/L=Erw Wen
                serial:00

    Signature Algorithm: sha1WithRSAEncryption
        67:db:ae:58:4d:5b:21:51:8f:c0:57:b1:5a:91:ee:5b:c4:b3:
        2a:18:75:ee:91:3e:f1:8d:9c:db:31:19:a2:b4:c8:a0:84:43:
        2e:41:a8:79:10:99:76:36:ed:b9:76:6c:0f:f7:d1:0a:cd:b4:
        17:c2:d9:24:b7:cb:e1:01:e1:86:bd:ec:bd:da:6e:17:87:c2:
        de:ab:bb:93:79:43:06:0a:c4:14:92:29:c5:f2:e9:00:d0:48:
        56:8c:df:6e:37:6c:86:d4:b4:a3:d5:9f:30:86:05:16:7f:a1:
        55:1e:d2:6c:0d:f9:17:9d:ac:c8:5d:dc:3f:1a:1e:ff:a7:d9:
        6e:e4
-----BEGIN CERTIFICATE-----
MIIC7TCCAlagAwIBAgIBATANBgkqhkiG9w0BAQUFADBVMQswCQYDVQQGEwJHQjEk
MCIGA1UEChMbQ2VydGlmaWNhdGUgVHJhbnNwYXJlbmN5IENBMQ4wDAYDVQQIEwVX
YWxlczEQMA4GA1UEBxMHRXJ3IFdlbjAeFw0xMjA2MDEwMDAwMDBaFw0yMjA2MDEw
MDAwMDBaMFgxCzAJBgNVBAYTAkdCMScwJQYDVQQKEx5DZXJ0aWZpY2F0ZSBUcmFu
c3BhcmVuY3kgUHJlQ0ExDjAMBgNVBAgTBVdhbGVzMRAwDgYDVQQHEwdFcncgV2Vu
MIGfMA0GCSqGSIb3DQEBAQUAA4GNADCBiQKBgQCwacO10mNb01r8qd+qmtErKNkS
EXv4ovfpGzTeA/tBkxcUEmV80lWHcQE5FtpUiNAFSoG7fNTUSwD26l2s1QdDzRJQ
Z8r63iul7h5IWTMUOIxxU3X2Zliv7IWYv51vC8faTMkdvykj8aJ/SGzD96LxvDDq
3NkTKoOHgd4LsyRDlQIDAQABo4HJMIHGMB0GA1UdDgQWBBQc0ETfQYpqc2F9snMN
CRpQX2OD/DAMBgNVHRMBAf8EAjAAMBgGA1UdJQEB/wQOMAwGCisGAQQB1nkCBAQw
fQYDVR0jBHYwdIAUs/Y8hTGbG+QdzfoV/xgThNxuGO+hWaRXMFUxCzAJBgNVBAYT
AkdCMSQwIgYDVQQKExtDZXJ0aWZpY2F0ZSBUcmFuc3BhcmVuY3kgQ0ExDjAMBgNV
BAgTBVdhbGVzMRAwDgYDVQQHEwdFcncgV2VuggEAMA0GCSqGSIb3DQEBBQUAA4GB
AGfbrlhNWyFRj8BXsVqR7lvEsyoYde6RPvGNnNsxGaK0yKCEQy5BqHkQmXY27bl2
bA/30QrNtBfC2SS3y+EB4Ya97L3abheHwt6ru5N5QwYKxBSSKcXy6QDQSFaM3243
bIbUtKPVnzCGBRZ/oVUe0mwN+RedrMhd3D8aHv+n2W7k
-----END CERTIFICATE-----
