Certificate:
    Data:
        Version: 3 (0x2)
        Serial Number: 1 (0x1)
        Signature Algorithm: sha1WithRSAEncryption
        Issuer: C=GB, O=Certificate Transparency CA, ST=Wales, L=Erw Wen
        Validity
            Not Before: Jun  1 00:00:00 2012 GMT
            Not After : Jun  1 00:00:00 2022 GMT
        Subject: C=GB, O=Certificate Transparency PreCA, ST=Wales, L=Erw Wen
        Subject Public Key Info:
            Public Key Algorithm: rsaEncryption
            RSA Public Key: (1024 bit)
                Modulus (1024 bit):
                    00:f1:40:6a:e9:72:f5:3d:f0:ae:5d:9e:81:e9:51:
                    dc:88:f7:c3:0f:e6:0f:58:f0:5d:d4:61:44:35:be:
                    58:d0:59:53:af:1c:67:f2:40:66:52:ab:ff:b9:b8:
                    8f:42:56:75:45:23:f2:83:dc:98:69:22:53:43:c4:
                    98:dc:27:d8:80:19:7a:8c:fe:7e:cf:e6:48:39:bb:
                    a3:e4:e0:ba:17:b2:00:fa:d4:25:9c:e9:6f:4f:22:
                    71:d4:27:3b:b2:b4:e8:80:f2:96:a3:a7:7c:e0:e9:
                    3f:17:53:94:d3:9d:a1:a9:a8:7c:51:43:1b:ff:fc:
                    c8:df:5d:49:40:67:d3:a0:43
                Exponent: 65537 (0x10001)
        X509v3 extensions:
            X509v3 Subject Key Identifier: 
                D8:75:DE:31:1A:F7:EC:B1:6F:E0:00:34:58:6B:48:27:E4:70:27:11
            X509v3 Basic Constraints: critical
                CA:FALSE
            X509v3 Extended Key Usage: critical
                1.2.3.4
            X509v3 Authority Key Identifier: 
                keyid:A3:B8:D8:9B:A2:69:0D:FB:48:BB:BF:87:C1:03:9D:DC:E5:62:56:C6
                DirName:/C=GB/O=Certificate Transparency CA/ST=Wales/L=Erw Wen
                serial:00

    Signature Algorithm: sha1WithRSAEncryption
        1a:ce:2f:f9:1b:5a:82:d1:38:16:ef:f1:8c:5b:c9:07:a9:41:
        40:71:59:08:06:bc:33:3b:a8:f6:d4:d1:a3:4d:ea:cc:1c:6e:
        00:0c:c3:99:0d:e8:6e:26:c4:af:20:18:6c:2f:a9:fe:33:f2:
        f9:6a:ca:7e:f2:db:b7:09:04:84:ad:6a:f2:e8:36:f4:12:8b:
        92:20:f5:33:c1:43:24:62:06:cc:7f:fa:86:71:47:49:18:9c:
        b5:df:71:fa:ae:1e:ca:32:aa:d0:fc:64:a8:6b:78:2e:d1:53:
        aa:2e:1c:e6:73:f1:8a:a3:86:1b:0a:f7:38:d4:a7:68:62:a1:
        ca:5c
-----BEGIN CERTIFICATE-----
MIIC5jCCAk+gAwIBAgIBATANBgkqhkiG9w0BAQUFADBVMQswCQYDVQQGEwJHQjEk
MCIGA1UEChMbQ2VydGlmaWNhdGUgVHJhbnNwYXJlbmN5IENBMQ4wDAYDVQQIEwVX
YWxlczEQMA4GA1UEBxMHRXJ3IFdlbjAeFw0xMjA2MDEwMDAwMDBaFw0yMjA2MDEw
MDAwMDBaMFgxCzAJBgNVBAYTAkdCMScwJQYDVQQKEx5DZXJ0aWZpY2F0ZSBUcmFu
c3BhcmVuY3kgUHJlQ0ExDjAMBgNVBAgTBVdhbGVzMRAwDgYDVQQHEwdFcncgV2Vu
MIGfMA0GCSqGSIb3DQEBAQUAA4GNADCBiQKBgQDxQGrpcvU98K5dnoHpUdyI98MP
5g9Y8F3UYUQ1vljQWVOvHGfyQGZSq/+5uI9CVnVFI/KD3JhpIlNDxJjcJ9iAGXqM
/n7P5kg5u6Pk4LoXsgD61CWc6W9PInHUJzuytOiA8pajp3zg6T8XU5TTnaGpqHxR
Qxv//MjfXUlAZ9OgQwIDAQABo4HCMIG/MB0GA1UdDgQWBBTYdd4xGvfssW/gADRY
a0gn5HAnETAMBgNVHRMBAf8EAjAAMBEGA1UdJQEB/wQHMAUGAyoDBDB9BgNVHSME
djB0gBSjuNibomkN+0i7v4fBA53c5WJWxqFZpFcwVTELMAkGA1UEBhMCR0IxJDAi
BgNVBAoTG0NlcnRpZmljYXRlIFRyYW5zcGFyZW5jeSBDQTEOMAwGA1UECBMFV2Fs
ZXMxEDAOBgNVBAcTB0VydyBXZW6CAQAwDQYJKoZIhvcNAQEFBQADgYEAGs4v+Rta
gtE4Fu/xjFvJB6lBQHFZCAa8Mzuo9tTRo03qzBxuAAzDmQ3obibEryAYbC+p/jPy
+WrKfvLbtwkEhK1q8ug29BKLkiD1M8FDJGIGzH/6hnFHSRictd9x+q4eyjKq0Pxk
qGt4LtFTqi4c5nPxiqOGGwr3ONSnaGKhylw=
-----END CERTIFICATE-----
