Certificate:
    Data:
        Version: 3 (0x2)
        Serial Number: 1 (0x1)
    Signature Algorithm: sha1WithRSAEncryption
        Issuer: C=GB, O=Certificate Transparency CA, ST=Wales, L=Erw Wen
        Validity
            Not Before: Jun  1 00:00:00 2012 GMT
            Not After : Jun  1 00:00:00 2022 GMT
        Subject: C=GB, O=Certificate Transparency PreCA, ST=Wales, L=Erw Wen
        Subject Public Key Info:
            Public Key Algorithm: rsaEncryption
                Public-Key: (1024 bit)
                Modulus:
                    00:b8:76:1b:62:b6:6e:07:e7:55:6d:32:95:1d:27:
                    7d:e7:54:f7:dc:35:f5:83:29:0c:a4:f4:1c:83:2f:
                    ba:e3:ef:f4:e2:c1:ec:a3:b1:6c:44:7e:24:bb:cc:
                    8c:bb:9f:69:e5:b9:e2:a8:86:ad:ec:a8:f2:2f:c9:
                    cd:0b:28:c4:7f:01:b3:0f:51:ef:8d:ab:e3:1e:65:
                    b4:e4:0f:8e:a6:a6:a3:bc:ab:82:bd:c3:c2:ca:a1:
                    b8:60:12:71:a8:ac:64:73:ea:0c:79:39:82:c6:5f:
                    23:3d:29:96:50:d6:e6:ef:22:ca:0a:e3:c5:43:80:
                    9d:dc:89:1a:07:c3:c7:09:1d
                Exponent: 65537 (0x10001)
        X509v3 extensions:
            X509v3 Subject Key Identifier: 
                84:46:7D:D2:06:D2:6F:B5:F7:A5:30:F9:63:F1:A5:E4:4E:67:8C:AD
            X509v3 Basic Constraints: critical
                CA:TRUE
            X509v3 Extended Key Usage: critical
                1.3.6.1.4.1.11129.2.4.4
            X509v3 Authority Key Identifier: 
                keyid:36:33:12:99:DB:DC:38:9D:1C:CC:FE:31:C0:8B:89:32:50:1A:8F:7C
                DirName:/C=GB/O=Certificate Transparency CA/ST=Wales/L=Erw Wen
                serial:00

    Signature Algorithm: sha1WithRSAEncryption
         bd:8e:85:8c:1b:c8:6a:b5:13:ad:96:e8:b1:f2:8f:6d:11:d8:
         6f:89:bc:4c:75:db:49:82:70:83:5c:91:29:f9:f2:67:02:47:
         da:0b:fb:aa:59:d4:39:2d:61:96:f6:90:2d:8f:91:af:5d:a3:
         79:38:ed:e9:6c:b3:cd:70:36:e5:a9:66:2a:ee:a8:c3:6e:8c:
         6e:93:a9:94:0d:b7:81:66:2a:c9:76:a4:1c:8a:dd:1e:91:3b:
         31:71:cd:ca:49:87:01:49:b1:89:e8:91:2c:6a:e4:5b:8e:f6:
         8a:0c:42:75:fe:bf:e5:b7:4f:3a:b9:04:48:11:ec:ec:c7:06:
         93:ba
-----BEGIN CERTIFICATE-----
MIIC8DCCAlmgAwIBAgIBATANBgkqhkiG9w0BAQUFADBVMQswCQYDVQQGEwJHQjEk
MCIGA1UEChMbQ2VydGlmaWNhdGUgVHJhbnNwYXJlbmN5IENBMQ4wDAYDVQQIEwVX
YWxlczEQMA4GA1UEBxMHRXJ3IFdlbjAeFw0xMjA2MDEwMDAwMDBaFw0yMjA2MDEw
MDAwMDBaMFgxCzAJBgNVBAYTAkdCMScwJQYDVQQKEx5DZXJ0aWZpY2F0ZSBUcmFu
c3BhcmVuY3kgUHJlQ0ExDjAMBgNVBAgTBVdhbGVzMRAwDgYDVQQHEwdFcncgV2Vu
MIGfMA0GCSqGSIb3DQEBAQUAA4GNADCBiQKBgQC4dhtitm4H51VtMpUdJ33nVPfc
NfWDKQyk9ByDL7rj7/TiweyjsWxEfiS7zIy7n2nlueKohq3sqPIvyc0LKMR/AbMP
Ue+Nq+MeZbTkD46mpqO8q4K9w8LKobhgEnGorGRz6gx5OYLGXyM9KZZQ1ubvIsoK
48VDgJ3ciRoHw8cJHQIDAQABo4HMMIHJMB0GA1UdDgQWBBSERn3SBtJvtfelMPlj
8aXkTmeMrTAPBgNVHRMBAf8EBTADAQH/MBgGA1UdJQEB/wQOMAwGCisGAQQB1nkC
BAQwfQYDVR0jBHYwdIAUNjMSmdvcOJ0czP4xwIuJMlAaj3yhWaRXMFUxCzAJBgNV
BAYTAkdCMSQwIgYDVQQKExtDZXJ0aWZpY2F0ZSBUcmFuc3BhcmVuY3kgQ0ExDjAM
BgNVBAgTBVdhbGVzMRAwDgYDVQQHEwdFcncgV2VuggEAMA0GCSqGSIb3DQEBBQUA
A4GBAL2OhYwbyGq1E62W6LHyj20R2G+JvEx120mCcINckSn58mcCR9oL+6pZ1Dkt
YZb2kC2Pka9do3k47elss81wNuWpZiruqMNujG6TqZQNt4FmKsl2pByK3R6ROzFx
zcpJhwFJsYnokSxq5FuO9ooMQnX+v+W3Tzq5BEgR7OzHBpO6
-----END CERTIFICATE-----
