Certificate:
    Data:
        Version: 3 (0x2)
        Serial Number: 1 (0x1)
        Signature Algorithm: sha1WithRSAEncryption
        Issuer: C=GB, O=Certificate Transparency CA, ST=Wales, L=Erw Wen
        Validity
            Not Before: Jun  1 00:00:00 2012 GMT
            Not After : Jun  1 00:00:00 2022 GMT
        Subject: C=GB, O=Certificate Transparency PreCA, ST=Wales, L=Erw Wen
        Subject Public Key Info:
            Public Key Algorithm: rsaEncryption
            RSA Public Key: (1024 bit)
                Modulus (1024 bit):
                    00:bc:f2:d8:2e:e5:85:b5:f2:80:71:c8:21:e5:d7:
                    ce:b2:a9:d0:cb:9d:8e:f2:7d:16:95:26:60:49:b4:
                    44:a0:4c:b8:ae:ff:f2:ad:a0:24:c8:16:dc:1e:2c:
                    38:eb:1a:15:90:e8:fd:98:55:6f:e7:2e:26:4d:e7:
                    45:8f:67:c0:8c:91:93:d7:d9:6f:89:5c:31:db:c2:
                    59:c3:22:13:7f:1e:d5:8a:14:11:59:fe:1a:08:56:
                    55:8a:89:57:91:98:a6:39:8e:e5:c1:a2:42:e9:43:
                    b6:cc:f5:eb:97:0e:63:82:45:2c:35:62:ca:6e:00:
                    60:80:bf:2b:6b:7e:78:ac:23
                Exponent: 65537 (0x10001)
        X509v3 extensions:
            X509v3 Subject Key Identifier: 
                C2:8E:22:E6:61:0C:95:82:7D:3E:6B:9E:14:73:80:B9:22:27:BF:DA
            X509v3 Basic Constraints: critical
                CA:FALSE
            X509v3 Extended Key Usage: critical
                1.3.6.1.4.1.11129.2.4.4
            X509v3 Authority Key Identifier: 
                keyid:6F:D4:9B:2C:46:DD:97:71:FF:E4:3A:A6:09:44:6C:9B:19:62:7D:F8
                DirName:/C=GB/O=Certificate Transparency CA/ST=Wales/L=Erw Wen
                serial:00

    Signature Algorithm: sha1WithRSAEncryption
        64:9d:71:92:38:88:c2:cd:35:28:0e:32:55:66:55:f7:68:0e:
        d0:70:39:07:1f:91:ae:ba:f5:d6:8e:42:f9:62:4f:8d:e7:a2:
        f1:f3:2c:23:59:cb:75:3b:b4:ef:40:71:01:fd:73:e9:52:3c:
        e6:3b:9e:db:13:87:6c:0b:6b:6d:f1:0d:0e:b3:06:9e:5c:30:
        62:46:9b:70:d7:d7:72:a7:66:40:d4:4b:65:f9:28:e0:2f:66:
        ac:b4:3f:f9:65:fb:6c:41:5d:a8:21:cf:88:b8:43:af:3c:bc:
        fd:3d:0d:db:28:d9:9b:0e:c6:83:c3:bf:19:44:a2:3f:b8:2b:
        c8:3e
-----BEGIN CERTIFICATE-----
MIIC7TCCAlagAwIBAgIBATANBgkqhkiG9w0BAQUFADBVMQswCQYDVQQGEwJHQjEk
MCIGA1UEChMbQ2VydGlmaWNhdGUgVHJhbnNwYXJlbmN5IENBMQ4wDAYDVQQIEwVX
YWxlczEQMA4GA1UEBxMHRXJ3IFdlbjAeFw0xMjA2MDEwMDAwMDBaFw0yMjA2MDEw
MDAwMDBaMFgxCzAJBgNVBAYTAkdCMScwJQYDVQQKEx5DZXJ0aWZpY2F0ZSBUcmFu
c3BhcmVuY3kgUHJlQ0ExDjAMBgNVBAgTBVdhbGVzMRAwDgYDVQQHEwdFcncgV2Vu
MIGfMA0GCSqGSIb3DQEBAQUAA4GNADCBiQKBgQC88tgu5YW18oBxyCHl186yqdDL
nY7yfRaVJmBJtESgTLiu//KtoCTIFtweLDjrGhWQ6P2YVW/nLiZN50WPZ8CMkZPX
2W+JXDHbwlnDIhN/HtWKFBFZ/hoIVlWKiVeRmKY5juXBokLpQ7bM9euXDmOCRSw1
YspuAGCAvytrfnisIwIDAQABo4HJMIHGMB0GA1UdDgQWBBTCjiLmYQyVgn0+a54U
c4C5Iie/2jAMBgNVHRMBAf8EAjAAMBgGA1UdJQEB/wQOMAwGCisGAQQB1nkCBAQw
fQYDVR0jBHYwdIAUb9SbLEbdl3H/5DqmCURsmxliffihWaRXMFUxCzAJBgNVBAYT
AkdCMSQwIgYDVQQKExtDZXJ0aWZpY2F0ZSBUcmFuc3BhcmVuY3kgQ0ExDjAMBgNV
BAgTBVdhbGVzMRAwDgYDVQQHEwdFcncgV2VuggEAMA0GCSqGSIb3DQEBBQUAA4GB
AGSdcZI4iMLNNSgOMlVmVfdoDtBwOQcfka669daOQvliT43novHzLCNZy3U7tO9A
cQH9c+lSPOY7ntsTh2wLa23xDQ6zBp5cMGJGm3DX13KnZkDUS2X5KOAvZqy0P/ll
+2xBXaghz4i4Q688vP09Ddso2ZsOxoPDvxlEoj+4K8g+
-----END CERTIFICATE-----
