Certificate:
    Data:
        Version: 3 (0x2)
        Serial Number: 1 (0x1)
        Signature Algorithm: sha1WithRSAEncryption
        Issuer: C=GB, O=Certificate Transparency CA, ST=Wales, L=Erw Wen
        Validity
            Not Before: Jun  1 00:00:00 2012 GMT
            Not After : Jun  1 00:00:00 2022 GMT
        Subject: C=GB, O=Certificate Transparency ProtoCA, ST=Wales, L=Erw Wen
        Subject Public Key Info:
            Public Key Algorithm: rsaEncryption
            RSA Public Key: (1024 bit)
                Modulus (1024 bit):
                    00:b1:a2:5c:ea:84:83:04:eb:02:31:c2:02:96:d7:
                    7e:b1:82:02:92:5c:5f:b6:e5:5a:1f:f1:98:bb:0d:
                    f4:25:b5:aa:90:1b:ae:df:48:85:bd:0b:47:ad:ac:
                    bb:a3:c4:66:8b:9d:6b:5d:58:38:f8:10:f5:0f:da:
                    ad:4f:ec:b2:f2:e1:58:9d:8d:bf:c4:fd:56:c0:19:
                    fe:0a:2b:69:63:f9:83:8b:3f:ed:77:97:d4:4a:d1:
                    5c:c9:41:48:73:73:36:ba:ce:24:64:20:d5:d1:3d:
                    27:67:0b:d4:8c:71:97:8c:12:07:32:7d:b2:90:bd:
                    65:63:92:d7:a1:ba:7d:e5:11
                Exponent: 65537 (0x10001)
        X509v3 extensions:
            X509v3 Subject Key Identifier: 
                B3:09:BD:70:52:2D:76:5F:6D:81:DB:C6:D1:CD:13:C7:9C:50:47:58
            X509v3 Basic Constraints: critical
                CA:FALSE
            X509v3 Extended Key Usage: critical
                1.2.3.4
            X509v3 Authority Key Identifier: 
                keyid:D6:DD:1D:FD:55:90:F8:14:A3:B2:19:C4:1B:2C:D7:AA:43:A6:DA:6B
                DirName:/C=GB/O=Certificate Transparency CA/ST=Wales/L=Erw Wen
                serial:00

    Signature Algorithm: sha1WithRSAEncryption
        71:ce:53:d8:03:c1:1b:a0:1f:25:5c:49:14:51:43:d0:5d:31:
        c7:de:da:93:c5:0b:03:26:d3:0f:6c:3a:67:d3:41:03:4e:ae:
        07:db:1f:80:58:85:96:e7:da:3d:c7:f6:21:95:b7:05:f7:e1:
        81:72:34:bb:d4:3b:71:58:21:6d:25:2e:40:be:70:fe:41:c3:
        04:86:11:30:54:4e:2b:b3:a7:09:2e:2c:e1:e1:13:78:41:46:
        b2:5a:44:4a:21:95:4e:33:3e:06:1a:86:d7:18:da:ee:2c:69:
        37:0b:cb:54:a6:4d:40:c2:69:22:15:87:2a:f7:65:8f:32:6d:
        0f:b4
-----BEGIN CERTIFICATE-----
MIIC6DCCAlGgAwIBAgIBATANBgkqhkiG9w0BAQUFADBVMQswCQYDVQQGEwJHQjEk
MCIGA1UEChMbQ2VydGlmaWNhdGUgVHJhbnNwYXJlbmN5IENBMQ4wDAYDVQQIEwVX
YWxlczEQMA4GA1UEBxMHRXJ3IFdlbjAeFw0xMjA2MDEwMDAwMDBaFw0yMjA2MDEw
MDAwMDBaMFoxCzAJBgNVBAYTAkdCMSkwJwYDVQQKEyBDZXJ0aWZpY2F0ZSBUcmFu
c3BhcmVuY3kgUHJvdG9DQTEOMAwGA1UECBMFV2FsZXMxEDAOBgNVBAcTB0VydyBX
ZW4wgZ8wDQYJKoZIhvcNAQEBBQADgY0AMIGJAoGBALGiXOqEgwTrAjHCApbXfrGC
ApJcX7blWh/xmLsN9CW1qpAbrt9Ihb0LR62su6PEZouda11YOPgQ9Q/arU/ssvLh
WJ2Nv8T9VsAZ/goraWP5g4s/7XeX1ErRXMlBSHNzNrrOJGQg1dE9J2cL1Ixxl4wS
BzJ9spC9ZWOS16G6feURAgMBAAGjgcIwgb8wHQYDVR0OBBYEFLMJvXBSLXZfbYHb
xtHNE8ecUEdYMAwGA1UdEwEB/wQCMAAwEQYDVR0lAQH/BAcwBQYDKgMEMH0GA1Ud
IwR2MHSAFNbdHf1VkPgUo7IZxBss16pDptproVmkVzBVMQswCQYDVQQGEwJHQjEk
MCIGA1UEChMbQ2VydGlmaWNhdGUgVHJhbnNwYXJlbmN5IENBMQ4wDAYDVQQIEwVX
YWxlczEQMA4GA1UEBxMHRXJ3IFdlboIBADANBgkqhkiG9w0BAQUFAAOBgQBxzlPY
A8EboB8lXEkUUUPQXTHH3tqTxQsDJtMPbDpn00EDTq4H2x+AWIWW59o9x/YhlbcF
9+GBcjS71DtxWCFtJS5AvnD+QcMEhhEwVE4rs6cJLizh4RN4QUayWkRKIZVOMz4G
GobXGNruLGk3C8tUpk1AwmkiFYcq92WPMm0PtA==
-----END CERTIFICATE-----
