Certificate:
    Data:
        Version: 3 (0x2)
        Serial Number: 0 (0x0)
    Signature Algorithm: sha1WithRSAEncryption
        Issuer: C=GB, O=Certificate Transparency Intermediate CA, ST=Wales, L=Erw Wen
        Validity
            Not Before: Jun  1 00:00:00 2012 GMT
            Not After : Jun  1 00:00:00 2022 GMT
        Subject: C=GB, O=Certificate Transparency Intermediate PreCA, ST=Wales, L=Erw Wen
        Subject Public Key Info:
            Public Key Algorithm: rsaEncryption
                Public-Key: (1024 bit)
                Modulus:
                    00:d5:07:78:ba:51:04:aa:b2:44:a8:b9:bf:12:c5:
                    7a:60:49:8e:6a:7a:f5:aa:fc:26:d1:0a:9b:f7:ce:
                    4e:0b:89:62:c4:38:1f:16:98:d4:79:db:72:84:1e:
                    ac:d9:24:3f:d7:64:a9:da:3c:28:06:e7:c5:bc:fd:
                    85:db:a5:0a:9c:81:88:af:f5:22:65:bf:e6:9a:b9:
                    38:6e:36:aa:6b:f3:a1:e9:60:89:95:51:33:06:e4:
                    9e:9c:ed:57:33:a1:e7:96:d5:a2:33:fb:b0:12:29:
                    43:fc:01:12:61:bd:0b:a4:1c:c2:05:c8:25:1b:4e:
                    58:67:23:7e:83:11:a1:54:6b
                Exponent: 65537 (0x10001)
        X509v3 extensions:
            X509v3 Subject Key Identifier: 
                52:6C:3C:F5:14:33:03:AC:B2:00:54:CE:D9:79:CE:1C:CD:4E:92:2E
            X509v3 Basic Constraints: critical
                CA:TRUE
            X509v3 Extended Key Usage: critical
                1.3.6.1.4.1.11129.2.4.4
            X509v3 Authority Key Identifier: 
                keyid:0D:19:29:3B:89:DD:BC:E3:1E:DF:7F:85:45:D4:4E:59:3C:B1:63:74
                DirName:/C=GB/O=Certificate Transparency CA/ST=Wales/L=Erw Wen
                serial:09

    Signature Algorithm: sha1WithRSAEncryption
         23:bf:5f:96:17:46:df:47:02:d1:c8:e3:b9:8e:ea:27:15:89:
         09:30:18:73:97:b8:5f:e8:9c:d2:e4:ae:63:a4:38:43:f1:a8:
         be:27:27:6f:ba:b6:54:25:df:d6:61:88:d4:ad:1c:32:0a:09:
         c5:2a:b5:42:8c:0a:a4:b7:84:70:1f:a1:09:ca:3b:90:df:67:
         74:ea:6f:c2:ef:6c:02:f1:98:10:2d:5d:2d:6e:9e:ef:1d:26:
         05:d4:45:0c:f4:65:4b:d1:87:30:af:34:9b:cc:0e:ac:72:07:
         53:0d:4e:d3:47:bf:4e:9f:84:ad:0d:8d:e7:95:1f:71:41:ea:
         9a:bd
-----BEGIN CERTIFICATE-----
MIIDCjCCAnOgAwIBAgIBADANBgkqhkiG9w0BAQUFADBiMQswCQYDVQQGEwJHQjEx
MC8GA1UEChMoQ2VydGlmaWNhdGUgVHJhbnNwYXJlbmN5IEludGVybWVkaWF0ZSBD
QTEOMAwGA1UECBMFV2FsZXMxEDAOBgNVBAcTB0VydyBXZW4wHhcNMTIwNjAxMDAw
MDAwWhcNMjIwNjAxMDAwMDAwWjBlMQswCQYDVQQGEwJHQjE0MDIGA1UEChMrQ2Vy
dGlmaWNhdGUgVHJhbnNwYXJlbmN5IEludGVybWVkaWF0ZSBQcmVDQTEOMAwGA1UE
CBMFV2FsZXMxEDAOBgNVBAcTB0VydyBXZW4wgZ8wDQYJKoZIhvcNAQEBBQADgY0A
MIGJAoGBANUHeLpRBKqyRKi5vxLFemBJjmp69ar8JtEKm/fOTguJYsQ4HxaY1Hnb
coQerNkkP9dkqdo8KAbnxbz9hdulCpyBiK/1ImW/5pq5OG42qmvzoelgiZVRMwbk
npztVzOh55bVojP7sBIpQ/wBEmG9C6QcwgXIJRtOWGcjfoMRoVRrAgMBAAGjgcww
gckwHQYDVR0OBBYEFFJsPPUUMwOssgBUztl5zhzNTpIuMA8GA1UdEwEB/wQFMAMB
Af8wGAYDVR0lAQH/BA4wDAYKKwYBBAHWeQIEBDB9BgNVHSMEdjB0gBQNGSk7id28
4x7ff4VF1E5ZPLFjdKFZpFcwVTELMAkGA1UEBhMCR0IxJDAiBgNVBAoTG0NlcnRp
ZmljYXRlIFRyYW5zcGFyZW5jeSBDQTEOMAwGA1UECBMFV2FsZXMxEDAOBgNVBAcT
B0VydyBXZW6CAQkwDQYJKoZIhvcNAQEFBQADgYEAI79flhdG30cC0cjjuY7qJxWJ
CTAYc5e4X+ic0uSuY6Q4Q/Govicnb7q2VCXf1mGI1K0cMgoJxSq1QowKpLeEcB+h
Cco7kN9ndOpvwu9sAvGYEC1dLW6e7x0mBdRFDPRlS9GHMK80m8wOrHIHUw1O00e/
Tp+ErQ2N55UfcUHqmr0=
-----END CERTIFICATE-----
