Certificate:
    Data:
        Version: 3 (0x2)
        Serial Number: 0 (0x0)
        Signature Algorithm: sha1WithRSAEncryption
        Issuer: C=GB, O=Certificate Transparency Intermediate CA, ST=Wales, L=Erw Wen
        Validity
            Not Before: Jun  1 00:00:00 2012 GMT
            Not After : Jun  1 00:00:00 2022 GMT
        Subject: C=GB, O=Certificate Transparency Intermediate PreCA, ST=Wales, L=Erw Wen
        Subject Public Key Info:
            Public Key Algorithm: rsaEncryption
            RSA Public Key: (1024 bit)
                Modulus (1024 bit):
                    00:c0:cc:55:d9:68:cb:71:83:b8:e7:d4:75:28:34:
                    ac:4a:ae:a5:e5:83:8d:75:07:fd:27:a6:85:f8:08:
                    8f:53:47:34:d1:af:51:2d:bf:3b:50:30:24:f2:ca:
                    51:af:a7:b4:0f:77:95:a1:22:34:f5:c5:db:f8:b1:
                    f5:31:7c:4f:e0:62:b5:7e:bb:ac:d5:65:4d:d9:c4:
                    59:67:bf:b9:a3:87:3f:6b:ae:f0:5a:b3:b0:6c:50:
                    71:20:62:a1:06:55:13:11:9f:6b:89:01:22:8c:8f:
                    9d:b5:e8:0a:7b:02:ca:07:8c:58:e8:45:6a:ec:8d:
                    d8:03:ce:f0:83:43:cc:91:51
                Exponent: 65537 (0x10001)
        X509v3 extensions:
            X509v3 Subject Key Identifier: 
                01:EA:80:FE:C0:72:E1:70:7E:97:DC:94:A2:99:FF:75:C1:E1:43:B8
            X509v3 Basic Constraints: critical
                CA:FALSE
            X509v3 Extended Key Usage: critical
                1.3.6.1.4.1.11129.2.4.4
            X509v3 Authority Key Identifier: 
                keyid:43:B5:88:B4:BA:03:96:14:EC:2B:F0:26:F0:7C:12:8D:64:A3:53:28
                DirName:/C=GB/O=Certificate Transparency CA/ST=Wales/L=Erw Wen
                serial:07

    Signature Algorithm: sha1WithRSAEncryption
        b7:e6:1d:fb:58:b9:8f:de:26:8a:9b:13:52:c8:c9:bd:a7:9c:
        b6:be:7d:ef:ac:82:f1:95:87:9f:69:c9:16:5d:de:a1:78:67:
        00:bb:11:a7:99:ef:0b:68:07:44:c5:c8:6a:8e:da:b2:aa:5e:
        74:41:20:62:b0:10:ee:99:08:b0:12:07:43:ba:46:9c:a2:2c:
        be:54:c4:cc:4d:35:e2:e9:90:6f:6e:03:d9:52:4e:09:84:97:
        6a:6d:16:48:25:c6:f7:75:59:48:68:0c:a1:c0:3a:de:ee:b1:
        b4:ca:95:e8:2d:b1:b8:c4:81:fc:67:90:e8:a6:98:c3:f9:76:
        8d:97
-----BEGIN CERTIFICATE-----
MIIDBzCCAnCgAwIBAgIBADANBgkqhkiG9w0BAQUFADBiMQswCQYDVQQGEwJHQjEx
MC8GA1UEChMoQ2VydGlmaWNhdGUgVHJhbnNwYXJlbmN5IEludGVybWVkaWF0ZSBD
QTEOMAwGA1UECBMFV2FsZXMxEDAOBgNVBAcTB0VydyBXZW4wHhcNMTIwNjAxMDAw
MDAwWhcNMjIwNjAxMDAwMDAwWjBlMQswCQYDVQQGEwJHQjE0MDIGA1UEChMrQ2Vy
dGlmaWNhdGUgVHJhbnNwYXJlbmN5IEludGVybWVkaWF0ZSBQcmVDQTEOMAwGA1UE
CBMFV2FsZXMxEDAOBgNVBAcTB0VydyBXZW4wgZ8wDQYJKoZIhvcNAQEBBQADgY0A
MIGJAoGBAMDMVdloy3GDuOfUdSg0rEqupeWDjXUH/SemhfgIj1NHNNGvUS2/O1Aw
JPLKUa+ntA93laEiNPXF2/ix9TF8T+BitX67rNVlTdnEWWe/uaOHP2uu8FqzsGxQ
cSBioQZVExGfa4kBIoyPnbXoCnsCygeMWOhFauyN2APO8INDzJFRAgMBAAGjgckw
gcYwHQYDVR0OBBYEFAHqgP7AcuFwfpfclKKZ/3XB4UO4MAwGA1UdEwEB/wQCMAAw
GAYDVR0lAQH/BA4wDAYKKwYBBAHWeQIEBDB9BgNVHSMEdjB0gBRDtYi0ugOWFOwr
8CbwfBKNZKNTKKFZpFcwVTELMAkGA1UEBhMCR0IxJDAiBgNVBAoTG0NlcnRpZmlj
YXRlIFRyYW5zcGFyZW5jeSBDQTEOMAwGA1UECBMFV2FsZXMxEDAOBgNVBAcTB0Vy
dyBXZW6CAQcwDQYJKoZIhvcNAQEFBQADgYEAt+Yd+1i5j94mipsTUsjJvaectr59
76yC8ZWHn2nJFl3eoXhnALsRp5nvC2gHRMXIao7asqpedEEgYrAQ7pkIsBIHQ7pG
nKIsvlTEzE014umQb24D2VJOCYSXam0WSCXG93VZSGgMocA63u6xtMqV6C2xuMSB
/GeQ6KaYw/l2jZc=
-----END CERTIFICATE-----
