Certificate:
    Data:
        Version: 3 (0x2)
        Serial Number: 0 (0x0)
        Signature Algorithm: sha1WithRSAEncryption
        Issuer: C=GB, O=Certificate Transparency Intermediate CA, ST=Wales, L=Erw Wen
        Validity
            Not Before: Jun  1 00:00:00 2012 GMT
            Not After : Jun  1 00:00:00 2022 GMT
        Subject: C=GB, O=Certificate Transparency Intermediate PreCA, ST=Wales, L=Erw Wen
        Subject Public Key Info:
            Public Key Algorithm: rsaEncryption
            RSA Public Key: (1024 bit)
                Modulus (1024 bit):
                    00:b9:5b:f7:38:8f:ea:a2:25:f6:03:93:89:58:b7:
                    de:b2:ee:4a:0c:88:c6:71:0c:36:2d:38:78:75:7d:
                    79:fe:5b:d5:88:37:e4:c1:b3:ea:aa:62:a8:d2:fa:
                    ab:d6:a4:40:35:79:29:6d:fe:3b:91:92:f0:55:6e:
                    69:16:71:cd:61:4a:f7:8a:ab:f2:8c:e0:a6:6e:79:
                    4b:87:da:d9:5f:46:bc:9d:d2:f3:c9:9c:13:e9:c5:
                    01:d2:2f:28:c2:60:ba:24:9b:dc:f8:76:89:c4:75:
                    7d:b5:a3:1b:6c:af:59:86:ed:3f:c6:14:70:0d:0c:
                    59:58:c4:af:52:d8:0e:be:91
                Exponent: 65537 (0x10001)
        X509v3 extensions:
            X509v3 Subject Key Identifier: 
                C0:38:36:93:88:64:34:C9:E9:CF:64:ED:14:E9:B5:76:BA:C0:C7:AD
            X509v3 Basic Constraints: critical
                CA:FALSE
            X509v3 Extended Key Usage: critical
                1.2.3.4
            X509v3 Authority Key Identifier: 
                keyid:DF:25:25:BA:DE:C5:74:E2:F1:BF:21:DC:BB:38:89:E2:18:A3:40:E8
                DirName:/C=GB/O=Certificate Transparency CA/ST=Wales/L=Erw Wen
                serial:04

    Signature Algorithm: sha1WithRSAEncryption
        40:3d:b0:fa:bf:14:58:28:bd:41:aa:1d:f5:91:70:28:df:a1:
        79:fe:ab:6a:1c:83:2a:b3:ef:10:3c:21:8d:a0:f6:38:7c:dc:
        a5:21:fb:e5:40:fc:77:ae:06:38:44:9a:96:8f:39:b6:d7:35:
        ff:1b:db:51:c1:e0:93:49:1a:42:82:a8:84:88:1b:5c:f3:8d:
        72:5b:84:5f:ba:eb:7b:a8:80:1f:ae:c2:65:33:57:d3:e2:a9:
        cb:79:45:7c:d1:79:5f:69:dd:09:66:fc:7d:5a:42:6a:96:59:
        44:60:6a:1f:8d:d8:f2:1f:01:f1:8c:06:56:9b:f9:5b:11:13:
        41:46
-----BEGIN CERTIFICATE-----
MIIDADCCAmmgAwIBAgIBADANBgkqhkiG9w0BAQUFADBiMQswCQYDVQQGEwJHQjEx
MC8GA1UEChMoQ2VydGlmaWNhdGUgVHJhbnNwYXJlbmN5IEludGVybWVkaWF0ZSBD
QTEOMAwGA1UECBMFV2FsZXMxEDAOBgNVBAcTB0VydyBXZW4wHhcNMTIwNjAxMDAw
MDAwWhcNMjIwNjAxMDAwMDAwWjBlMQswCQYDVQQGEwJHQjE0MDIGA1UEChMrQ2Vy
dGlmaWNhdGUgVHJhbnNwYXJlbmN5IEludGVybWVkaWF0ZSBQcmVDQTEOMAwGA1UE
CBMFV2FsZXMxEDAOBgNVBAcTB0VydyBXZW4wgZ8wDQYJKoZIhvcNAQEBBQADgY0A
MIGJAoGBALlb9ziP6qIl9gOTiVi33rLuSgyIxnEMNi04eHV9ef5b1Yg35MGz6qpi
qNL6q9akQDV5KW3+O5GS8FVuaRZxzWFK94qr8ozgpm55S4fa2V9GvJ3S88mcE+nF
AdIvKMJguiSb3Ph2icR1fbWjG2yvWYbtP8YUcA0MWVjEr1LYDr6RAgMBAAGjgcIw
gb8wHQYDVR0OBBYEFMA4NpOIZDTJ6c9k7RTptXa6wMetMAwGA1UdEwEB/wQCMAAw
EQYDVR0lAQH/BAcwBQYDKgMEMH0GA1UdIwR2MHSAFN8lJbrexXTi8b8h3Ls4ieIY
o0DooVmkVzBVMQswCQYDVQQGEwJHQjEkMCIGA1UEChMbQ2VydGlmaWNhdGUgVHJh
bnNwYXJlbmN5IENBMQ4wDAYDVQQIEwVXYWxlczEQMA4GA1UEBxMHRXJ3IFdlboIB
BDANBgkqhkiG9w0BAQUFAAOBgQBAPbD6vxRYKL1Bqh31kXAo36F5/qtqHIMqs+8Q
PCGNoPY4fNylIfvlQPx3rgY4RJqWjzm21zX/G9tRweCTSRpCgqiEiBtc841yW4Rf
uut7qIAfrsJlM1fT4qnLeUV80Xlfad0JZvx9WkJqlllEYGofjdjyHwHxjAZWm/lb
ERNBRg==
-----END CERTIFICATE-----
