Certificate:
    Data:
        Version: 3 (0x2)
        Serial Number: 7 (0x7)
        Signature Algorithm: sha1WithRSAEncryption
        Issuer: C=GB, O=Certificate Transparency CA, ST=Wales, L=Erw Wen
        Validity
            Not Before: Jun  1 00:00:00 2012 GMT
            Not After : Jun  1 00:00:00 2022 GMT
        Subject: C=GB, O=Certificate Transparency Intermediate CA, ST=Wales, L=Erw Wen
        Subject Public Key Info:
            Public Key Algorithm: rsaEncryption
            RSA Public Key: (1024 bit)
                Modulus (1024 bit):
                    00:c1:b9:d7:8a:3e:0a:ef:02:6a:bb:c8:41:d3:2a:
                    a0:07:61:fb:ab:4d:d0:75:1b:3e:ac:14:81:ee:83:
                    e0:f4:7a:0b:01:23:f1:da:75:6a:b5:71:af:cd:f2:
                    0c:85:a9:57:2c:24:75:40:ed:38:e8:63:c3:c5:0f:
                    42:a2:db:6a:b0:45:eb:08:6a:34:8e:0a:e9:18:49:
                    31:72:96:65:6c:ce:7b:8d:e4:f2:20:1f:71:13:5e:
                    d2:11:d5:91:07:f9:c7:ab:7b:59:39:9a:15:32:90:
                    69:b1:92:5c:a6:38:3d:bb:75:13:15:4c:3a:36:26:
                    c5:00:8c:ae:b2:17:7e:22:89
                Exponent: 65537 (0x10001)
        X509v3 extensions:
            X509v3 Subject Key Identifier: 
                43:B5:88:B4:BA:03:96:14:EC:2B:F0:26:F0:7C:12:8D:64:A3:53:28
            X509v3 Authority Key Identifier: 
                keyid:6F:D4:9B:2C:46:DD:97:71:FF:E4:3A:A6:09:44:6C:9B:19:62:7D:F8
                DirName:/C=GB/O=Certificate Transparency CA/ST=Wales/L=Erw Wen
                serial:00

            X509v3 Basic Constraints: 
                CA:TRUE
    Signature Algorithm: sha1WithRSAEncryption
        69:3c:42:85:57:8c:17:ec:73:3d:38:22:6f:e3:c1:f5:81:5d:
        78:fa:69:9c:d6:d4:0c:9f:87:73:c2:6e:b5:13:b3:60:09:eb:
        a4:b1:77:9a:e9:d1:a3:49:44:07:7d:00:cf:4f:b0:69:6f:f0:
        e5:e7:98:a0:97:b5:cb:62:86:60:39:5e:9c:fc:53:60:14:92:
        6e:91:9f:67:8f:5f:79:21:bc:0e:eb:45:29:ab:94:65:ef:8c:
        4a:07:cc:f9:df:32:da:21:18:c3:60:58:0d:96:a1:f9:40:36:
        da:c7:47:fc:98:f0:94:66:41:9c:41:4c:4b:c8:47:02:6b:f0:
        14:b6
-----BEGIN CERTIFICATE-----
MIIC3TCCAkagAwIBAgIBBzANBgkqhkiG9w0BAQUFADBVMQswCQYDVQQGEwJHQjEk
MCIGA1UEChMbQ2VydGlmaWNhdGUgVHJhbnNwYXJlbmN5IENBMQ4wDAYDVQQIEwVX
YWxlczEQMA4GA1UEBxMHRXJ3IFdlbjAeFw0xMjA2MDEwMDAwMDBaFw0yMjA2MDEw
MDAwMDBaMGIxCzAJBgNVBAYTAkdCMTEwLwYDVQQKEyhDZXJ0aWZpY2F0ZSBUcmFu
c3BhcmVuY3kgSW50ZXJtZWRpYXRlIENBMQ4wDAYDVQQIEwVXYWxlczEQMA4GA1UE
BxMHRXJ3IFdlbjCBnzANBgkqhkiG9w0BAQEFAAOBjQAwgYkCgYEAwbnXij4K7wJq
u8hB0yqgB2H7q03QdRs+rBSB7oPg9HoLASPx2nVqtXGvzfIMhalXLCR1QO046GPD
xQ9CottqsEXrCGo0jgrpGEkxcpZlbM57jeTyIB9xE17SEdWRB/nHq3tZOZoVMpBp
sZJcpjg9u3UTFUw6NibFAIyushd+IokCAwEAAaOBrzCBrDAdBgNVHQ4EFgQUQ7WI
tLoDlhTsK/Am8HwSjWSjUygwfQYDVR0jBHYwdIAUb9SbLEbdl3H/5DqmCURsmxli
ffihWaRXMFUxCzAJBgNVBAYTAkdCMSQwIgYDVQQKExtDZXJ0aWZpY2F0ZSBUcmFu
c3BhcmVuY3kgQ0ExDjAMBgNVBAgTBVdhbGVzMRAwDgYDVQQHEwdFcncgV2VuggEA
MAwGA1UdEwQFMAMBAf8wDQYJKoZIhvcNAQEFBQADgYEAaTxChVeMF+xzPTgib+PB
9YFdePppnNbUDJ+Hc8JutROzYAnrpLF3munRo0lEB30Az0+waW/w5eeYoJe1y2KG
YDlenPxTYBSSbpGfZ49feSG8DutFKauUZe+MSgfM+d8y2iEYw2BYDZah+UA22sdH
/JjwlGZBnEFMS8hHAmvwFLY=
-----END CERTIFICATE-----
