Certificate:
    Data:
        Version: 3 (0x2)
        Serial Number: 0 (0x0)
        Signature Algorithm: sha1WithRSAEncryption
        Issuer: C=GB, O=Certificate Transparency Intermediate CA, ST=Wales, L=Erw Wen
        Validity
            Not Before: Jun  1 00:00:00 2012 GMT
            Not After : Jun  1 00:00:00 2022 GMT
        Subject: C=GB, O=Certificate Transparency Intermediate PreCA, ST=Wales, L=Erw Wen
        Subject Public Key Info:
            Public Key Algorithm: rsaEncryption
            RSA Public Key: (1024 bit)
                Modulus (1024 bit):
                    00:c8:19:54:22:c1:7e:7e:1c:38:3b:d0:a4:88:0a:
                    9c:39:8e:ea:02:ec:e5:c2:3c:ee:4d:87:aa:42:84:
                    b4:aa:19:bd:64:32:58:b7:4c:30:8b:58:a9:0d:83:
                    87:f0:1a:15:51:77:5e:ef:61:40:3e:34:d0:de:69:
                    74:99:7f:f6:13:ef:8e:5e:31:e8:69:32:3f:16:8b:
                    87:cf:19:d4:69:05:9c:1e:df:8d:29:9d:15:4c:51:
                    f2:2e:91:0d:90:4c:57:e1:67:9b:fd:35:91:37:b9:
                    4a:f8:ae:cc:48:cb:50:c2:0d:6c:8f:69:fe:ef:8c:
                    cc:56:7c:5e:e4:1e:04:60:23
                Exponent: 65537 (0x10001)
        X509v3 extensions:
            X509v3 Subject Key Identifier: 
                94:EC:B9:AF:BC:DA:7F:6E:51:7B:FF:59:51:17:48:FC:DE:11:77:79
            X509v3 Basic Constraints: critical
                CA:FALSE
            X509v3 Extended Key Usage: critical
                1.3.6.1.4.1.11129.2.4.4
            X509v3 Authority Key Identifier: 
                keyid:BA:77:60:93:04:D7:2E:17:A6:3F:66:C6:28:63:49:60:AF:D5:82:30
                DirName:/C=GB/O=Certificate Transparency CA/ST=Wales/L=Erw Wen
                serial:07

    Signature Algorithm: sha1WithRSAEncryption
        1b:7b:70:0f:df:b5:22:9f:d0:57:52:1c:04:c7:9d:5a:30:23:
        96:a1:b2:d0:5f:f0:d8:f3:c2:12:76:70:97:f8:92:92:5a:3a:
        28:07:ca:84:f8:37:b9:87:44:6f:94:52:91:a5:16:34:5f:73:
        b9:fe:b7:f2:eb:93:bb:1b:a0:25:e8:b8:3e:ee:aa:61:1a:d0:
        bd:1f:1e:e3:ab:af:11:8c:3c:36:e1:cb:37:5e:76:99:f9:28:
        e5:e6:9a:05:86:02:cc:50:19:9d:fe:64:a2:63:78:b8:62:e1:
        bf:0c:f5:6b:33:1e:6a:54:d7:ad:75:f8:34:2c:32:62:aa:5e:
        07:32
-----BEGIN CERTIFICATE-----
MIIDBzCCAnCgAwIBAgIBADANBgkqhkiG9w0BAQUFADBiMQswCQYDVQQGEwJHQjEx
MC8GA1UEChMoQ2VydGlmaWNhdGUgVHJhbnNwYXJlbmN5IEludGVybWVkaWF0ZSBD
QTEOMAwGA1UECBMFV2FsZXMxEDAOBgNVBAcTB0VydyBXZW4wHhcNMTIwNjAxMDAw
MDAwWhcNMjIwNjAxMDAwMDAwWjBlMQswCQYDVQQGEwJHQjE0MDIGA1UEChMrQ2Vy
dGlmaWNhdGUgVHJhbnNwYXJlbmN5IEludGVybWVkaWF0ZSBQcmVDQTEOMAwGA1UE
CBMFV2FsZXMxEDAOBgNVBAcTB0VydyBXZW4wgZ8wDQYJKoZIhvcNAQEBBQADgY0A
MIGJAoGBAMgZVCLBfn4cODvQpIgKnDmO6gLs5cI87k2HqkKEtKoZvWQyWLdMMItY
qQ2Dh/AaFVF3Xu9hQD400N5pdJl/9hPvjl4x6GkyPxaLh88Z1GkFnB7fjSmdFUxR
8i6RDZBMV+Fnm/01kTe5SviuzEjLUMINbI9p/u+MzFZ8XuQeBGAjAgMBAAGjgckw
gcYwHQYDVR0OBBYEFJTsua+82n9uUXv/WVEXSPzeEXd5MAwGA1UdEwEB/wQCMAAw
GAYDVR0lAQH/BA4wDAYKKwYBBAHWeQIEBDB9BgNVHSMEdjB0gBS6d2CTBNcuF6Y/
ZsYoY0lgr9WCMKFZpFcwVTELMAkGA1UEBhMCR0IxJDAiBgNVBAoTG0NlcnRpZmlj
YXRlIFRyYW5zcGFyZW5jeSBDQTEOMAwGA1UECBMFV2FsZXMxEDAOBgNVBAcTB0Vy
dyBXZW6CAQcwDQYJKoZIhvcNAQEFBQADgYEAG3twD9+1Ip/QV1IcBMedWjAjlqGy
0F/w2PPCEnZwl/iSklo6KAfKhPg3uYdEb5RSkaUWNF9zuf638uuTuxugJei4Pu6q
YRrQvR8e46uvEYw8NuHLN152mfko5eaaBYYCzFAZnf5komN4uGLhvwz1azMealTX
rXX4NCwyYqpeBzI=
-----END CERTIFICATE-----
