Certificate:
    Data:
        Version: 3 (0x2)
        Serial Number: 1 (0x1)
        Signature Algorithm: sha1WithRSAEncryption
        Issuer: C=GB, O=Certificate Transparency Intermediate CA, ST=Wales, L=Erw Wen
        Validity
            Not Before: Jun  1 00:00:00 2012 GMT
            Not After : Jun  1 00:00:00 2022 GMT
        Subject: C=GB, O=Certificate Transparency, ST=Wales, L=Erw Wen
        Subject Public Key Info:
            Public Key Algorithm: rsaEncryption
            RSA Public Key: (1024 bit)
                Modulus (1024 bit):
                    00:ad:5a:99:4f:82:72:63:63:b6:4e:43:fd:c1:6c:
                    6a:0b:2b:55:88:d9:d2:d1:55:58:7f:42:0f:1c:4b:
                    39:ff:ec:be:c5:c3:c5:62:ca:0c:71:ca:92:9f:41:
                    e8:8e:2d:86:57:b5:5c:d9:f5:72:a9:24:ee:43:d4:
                    2c:44:e0:55:07:3e:39:e5:6c:de:13:4f:89:ca:e0:
                    53:56:99:b4:76:1a:e0:15:1a:4b:76:8f:a8:30:4c:
                    cc:a3:a0:30:c8:0b:a4:d3:49:6c:e4:81:e3:9e:bc:
                    b3:1e:05:20:2c:df:98:18:c4:3d:01:a0:a2:0e:d6:
                    1c:45:d6:ae:1e:a2:16:87:63
                Exponent: 65537 (0x10001)
        X509v3 extensions:
            X509v3 Subject Key Identifier: 
                CB:CB:2A:D0:07:93:D4:D5:B3:DA:98:58:CC:96:EE:16:8F:D5:2E:EA
            X509v3 Authority Key Identifier: 
                keyid:29:34:C5:5D:EC:22:31:3D:1F:52:75:61:30:78:B6:A2:D2:FD:07:97
                DirName:/C=GB/O=Certificate Transparency CA/ST=Wales/L=Erw Wen
                serial:04

            X509v3 Basic Constraints: 
                CA:FALSE
    Signature Algorithm: sha1WithRSAEncryption
        96:4b:5d:5d:05:d2:b6:dd:20:46:23:02:33:74:bf:6a:b6:ce:
        3a:8a:f2:da:30:44:06:9f:25:69:1a:ff:8c:c3:74:3e:7e:1d:
        a4:2c:5d:b9:07:92:0d:84:75:59:27:45:86:a8:03:79:fa:17:
        c6:60:1f:6e:df:f2:dc:03:38:9d:3b:0c:73:37:d9:e5:01:5a:
        3b:00:ac:20:bd:0b:c8:03:79:f0:fa:a3:49:c8:19:c2:07:78:
        ae:19:c1:65:e5:04:4f:6b:43:d0:1d:bd:4a:17:25:61:4f:76:
        2d:ee:fa:70:55:92:0c:48:67:ef:38:10:68:b3:46:cf:b9:ce:
        b6:8b
-----BEGIN CERTIFICATE-----
MIIC1zCCAkCgAwIBAgIBATANBgkqhkiG9w0BAQUFADBiMQswCQYDVQQGEwJHQjEx
MC8GA1UEChMoQ2VydGlmaWNhdGUgVHJhbnNwYXJlbmN5IEludGVybWVkaWF0ZSBD
QTEOMAwGA1UECBMFV2FsZXMxEDAOBgNVBAcTB0VydyBXZW4wHhcNMTIwNjAxMDAw
MDAwWhcNMjIwNjAxMDAwMDAwWjBSMQswCQYDVQQGEwJHQjEhMB8GA1UEChMYQ2Vy
dGlmaWNhdGUgVHJhbnNwYXJlbmN5MQ4wDAYDVQQIEwVXYWxlczEQMA4GA1UEBxMH
RXJ3IFdlbjCBnzANBgkqhkiG9w0BAQEFAAOBjQAwgYkCgYEArVqZT4JyY2O2TkP9
wWxqCytViNnS0VVYf0IPHEs5/+y+xcPFYsoMccqSn0Hoji2GV7Vc2fVyqSTuQ9Qs
ROBVBz455WzeE0+JyuBTVpm0dhrgFRpLdo+oMEzMo6AwyAuk00ls5IHjnryzHgUg
LN+YGMQ9AaCiDtYcRdauHqIWh2MCAwEAAaOBrDCBqTAdBgNVHQ4EFgQUy8sq0AeT
1NWz2phYzJbuFo/VLuowfQYDVR0jBHYwdIAUKTTFXewiMT0fUnVhMHi2otL9B5eh
WaRXMFUxCzAJBgNVBAYTAkdCMSQwIgYDVQQKExtDZXJ0aWZpY2F0ZSBUcmFuc3Bh
cmVuY3kgQ0ExDjAMBgNVBAgTBVdhbGVzMRAwDgYDVQQHEwdFcncgV2VuggEEMAkG
A1UdEwQCMAAwDQYJKoZIhvcNAQEFBQADgYEAlktdXQXStt0gRiMCM3S/arbOOory
2jBEBp8laRr/jMN0Pn4dpCxduQeSDYR1WSdFhqgDefoXxmAfbt/y3AM4nTsMczfZ
5QFaOwCsIL0LyAN58PqjScgZwgd4rhnBZeUET2tD0B29ShclYU92Le76cFWSDEhn
7zgQaLNGz7nOtos=
-----END CERTIFICATE-----
