Certificate:
    Data:
        Version: 3 (0x2)
        Serial Number: 8 (0x8)
    Signature Algorithm: sha1WithRSAEncryption
        Issuer: C=GB, O=Certificate Transparency PreCA, ST=Wales, L=Erw Wen
        Validity
            Not Before: Jun  1 00:00:00 2012 GMT
            Not After : Jun  1 00:00:00 2022 GMT
        Subject: C=GB, O=Certificate Transparency, ST=Wales, L=Erw Wen
        Subject Public Key Info:
            Public Key Algorithm: rsaEncryption
                Public-Key: (1024 bit)
                Modulus:
                    00:c7:b0:e1:c4:86:02:48:49:c0:4b:58:4d:c3:f0:
                    93:60:d8:8a:93:99:4e:9e:c5:61:da:5a:37:2c:f1:
                    7c:82:15:82:e3:1d:8d:64:e4:f2:d1:c3:25:7e:88:
                    36:dd:dd:df:f3:ab:19:da:41:3a:c8:69:e0:53:c4:
                    2f:e5:7d:5f:a9:2d:bd:da:e7:7e:2f:b1:88:26:4a:
                    72:44:6a:e3:1e:bc:dc:49:1c:73:1d:e8:83:fa:31:
                    c7:e6:d0:aa:fb:ad:58:86:98:ed:4b:9f:e6:92:af:
                    94:a4:ab:7e:71:6e:cb:64:33:21:45:50:40:a7:76:
                    a7:d8:e7:1e:b9:92:1e:45:79
                Exponent: 65537 (0x10001)
        X509v3 extensions:
            X509v3 Subject Key Identifier: 
                95:5F:C1:84:74:94:CB:63:A0:F7:30:77:D1:68:F4:3B:B9:57:B9:3E
            X509v3 Authority Key Identifier: 
                keyid:84:46:7D:D2:06:D2:6F:B5:F7:A5:30:F9:63:F1:A5:E4:4E:67:8C:AD
                DirName:/C=GB/O=Certificate Transparency CA/ST=Wales/L=Erw Wen
                serial:01

            X509v3 Basic Constraints: 
                CA:FALSE
            1.3.6.1.4.1.11129.2.4.3: critical
                ..
    Signature Algorithm: sha1WithRSAEncryption
         12:6b:34:89:70:58:89:0e:5a:dc:fd:43:4f:6f:fb:19:3b:83:
         4a:02:bf:05:0c:da:71:cd:bf:d2:8c:b8:3f:94:d3:9c:02:28:
         81:45:ca:d3:35:52:a9:bc:5f:e0:28:22:d4:6b:73:83:a6:d3:
         f4:55:21:47:cb:11:a3:ef:68:b7:10:7b:1f:4a:da:b4:08:da:
         62:8a:66:73:40:16:05:1d:4d:00:b2:a8:7b:2f:62:e2:1e:68:
         51:c5:73:39:13:69:41:4a:2f:d2:f1:34:c4:d5:ba:36:64:31:
         92:04:33:89:69:32:25:65:5d:c2:58:51:14:6d:56:4d:b6:06:
         30:4a
-----BEGIN CERTIFICATE-----
MIIC4jCCAkugAwIBAgIBCDANBgkqhkiG9w0BAQUFADBYMQswCQYDVQQGEwJHQjEn
MCUGA1UEChMeQ2VydGlmaWNhdGUgVHJhbnNwYXJlbmN5IFByZUNBMQ4wDAYDVQQI
EwVXYWxlczEQMA4GA1UEBxMHRXJ3IFdlbjAeFw0xMjA2MDEwMDAwMDBaFw0yMjA2
MDEwMDAwMDBaMFIxCzAJBgNVBAYTAkdCMSEwHwYDVQQKExhDZXJ0aWZpY2F0ZSBU
cmFuc3BhcmVuY3kxDjAMBgNVBAgTBVdhbGVzMRAwDgYDVQQHEwdFcncgV2VuMIGf
MA0GCSqGSIb3DQEBAQUAA4GNADCBiQKBgQDHsOHEhgJIScBLWE3D8JNg2IqTmU6e
xWHaWjcs8XyCFYLjHY1k5PLRwyV+iDbd3d/zqxnaQTrIaeBTxC/lfV+pLb3a534v
sYgmSnJEauMevNxJHHMd6IP6Mcfm0Kr7rViGmO1Ln+aSr5Skq35xbstkMyFFUECn
dqfY5x65kh5FeQIDAQABo4HBMIG+MB0GA1UdDgQWBBSVX8GEdJTLY6D3MHfRaPQ7
uVe5PjB9BgNVHSMEdjB0gBSERn3SBtJvtfelMPlj8aXkTmeMraFZpFcwVTELMAkG
A1UEBhMCR0IxJDAiBgNVBAoTG0NlcnRpZmljYXRlIFRyYW5zcGFyZW5jeSBDQTEO
MAwGA1UECBMFV2FsZXMxEDAOBgNVBAcTB0VydyBXZW6CAQEwCQYDVR0TBAIwADAT
BgorBgEEAdZ5AgQDAQH/BAIFADANBgkqhkiG9w0BAQUFAAOBgQASazSJcFiJDlrc
/UNPb/sZO4NKAr8FDNpxzb/SjLg/lNOcAiiBRcrTNVKpvF/gKCLUa3ODptP0VSFH
yxGj72i3EHsfStq0CNpiimZzQBYFHU0Asqh7L2LiHmhRxXM5E2lBSi/S8TTE1bo2
ZDGSBDOJaTIlZV3CWFEUbVZNtgYwSg==
-----END CERTIFICATE-----
