Certificate:
    Data:
        Version: 3 (0x2)
        Serial Number: 3 (0x3)
    Signature Algorithm: sha1WithRSAEncryption
        Issuer: C=GB, O=Certificate Transparency Intermediate PreCA, ST=Wales, L=Erw Wen
        Validity
            Not Before: Jun  1 00:00:00 2012 GMT
            Not After : Jun  1 00:00:00 2022 GMT
        Subject: C=GB, O=Certificate Transparency, ST=Wales, L=Erw Wen
        Subject Public Key Info:
            Public Key Algorithm: rsaEncryption
                Public-Key: (1024 bit)
                Modulus:
                    00:c1:2e:c3:f9:bf:bf:6b:5f:00:ae:2d:7b:10:b0:
                    4f:5c:43:86:5c:7b:46:7e:f1:e8:0d:13:83:a1:fc:
                    b6:a1:ca:81:e1:97:3a:42:41:7f:11:71:39:ad:f1:
                    4a:b2:0e:3f:05:98:1c:0d:2b:d5:64:3e:76:23:a5:
                    8e:de:a4:7a:e7:21:19:da:45:22:7d:cb:a8:25:c3:
                    2e:0c:90:ec:ac:71:01:74:07:c6:3f:a4:db:ea:5a:
                    72:ab:63:75:cf:ce:f1:52:ac:1f:73:54:2c:a6:6f:
                    2d:50:f0:7c:70:a6:fd:9f:a4:53:69:be:db:2c:77:
                    5d:b8:a7:40:51:1a:a6:9f:c7
                Exponent: 65537 (0x10001)
        X509v3 extensions:
            X509v3 Subject Key Identifier: 
                09:E3:64:46:D6:F0:F2:B9:8C:25:27:A5:5C:1A:2A:37:DE:3B:F3:6C
            X509v3 Authority Key Identifier: 
                keyid:52:6C:3C:F5:14:33:03:AC:B2:00:54:CE:D9:79:CE:1C:CD:4E:92:2E
                DirName:/C=GB/O=Certificate Transparency Intermediate CA/ST=Wales/L=Erw Wen
                serial:00

            X509v3 Basic Constraints: 
                CA:FALSE
            1.3.6.1.4.1.11129.2.4.3: critical
                ..
    Signature Algorithm: sha1WithRSAEncryption
         c2:e4:1e:85:b3:81:9c:cf:7f:77:2b:ad:b7:a9:c7:bb:1b:4c:
         0e:0f:4c:45:a4:3e:76:05:06:12:24:d8:c9:90:19:0c:83:21:
         67:7e:7e:22:83:14:39:fa:7a:3c:98:88:d8:9d:0e:a7:12:1c:
         40:dd:0b:34:ad:02:a3:54:35:8a:7f:25:f0:1e:e2:1f:53:30:
         f0:32:b5:b1:40:7a:e5:a6:30:3c:a2:38:de:91:02:7b:91:a9:
         ca:e1:10:b5:fd:84:6d:e1:e2:83:11:c8:2f:06:2f:0b:5f:67:
         9c:e7:c7:73:3c:d1:78:e2:47:dd:4f:0f:97:49:8d:d1:b0:a0:
         e8:22
-----BEGIN CERTIFICATE-----
MIIC/zCCAmigAwIBAgIBAzANBgkqhkiG9w0BAQUFADBlMQswCQYDVQQGEwJHQjE0
MDIGA1UEChMrQ2VydGlmaWNhdGUgVHJhbnNwYXJlbmN5IEludGVybWVkaWF0ZSBQ
cmVDQTEOMAwGA1UECBMFV2FsZXMxEDAOBgNVBAcTB0VydyBXZW4wHhcNMTIwNjAx
MDAwMDAwWhcNMjIwNjAxMDAwMDAwWjBSMQswCQYDVQQGEwJHQjEhMB8GA1UEChMY
Q2VydGlmaWNhdGUgVHJhbnNwYXJlbmN5MQ4wDAYDVQQIEwVXYWxlczEQMA4GA1UE
BxMHRXJ3IFdlbjCBnzANBgkqhkiG9w0BAQEFAAOBjQAwgYkCgYEAwS7D+b+/a18A
ri17ELBPXEOGXHtGfvHoDRODofy2ocqB4Zc6QkF/EXE5rfFKsg4/BZgcDSvVZD52
I6WO3qR65yEZ2kUifcuoJcMuDJDsrHEBdAfGP6Tb6lpyq2N1z87xUqwfc1Qspm8t
UPB8cKb9n6RTab7bLHdduKdAURqmn8cCAwEAAaOB0TCBzjAdBgNVHQ4EFgQUCeNk
Rtbw8rmMJSelXBoqN94782wwgYwGA1UdIwSBhDCBgYAUUmw89RQzA6yyAFTO2XnO
HM1Oki6hZqRkMGIxCzAJBgNVBAYTAkdCMTEwLwYDVQQKEyhDZXJ0aWZpY2F0ZSBU
cmFuc3BhcmVuY3kgSW50ZXJtZWRpYXRlIENBMQ4wDAYDVQQIEwVXYWxlczEQMA4G
A1UEBxMHRXJ3IFdlboIBADAJBgNVHRMEAjAAMBMGCisGAQQB1nkCBAMBAf8EAgUA
MA0GCSqGSIb3DQEBBQUAA4GBAMLkHoWzgZzPf3crrbepx7sbTA4PTEWkPnYFBhIk
2MmQGQyDIWd+fiKDFDn6ejyYiNidDqcSHEDdCzStAqNUNYp/JfAe4h9TMPAytbFA
euWmMDyiON6RAnuRqcrhELX9hG3h4oMRyC8GLwtfZ5znx3M80XjiR91PD5dJjdGw
oOgi
-----END CERTIFICATE-----
