Certificate:
    Data:
        Version: 3 (0x2)
        Serial Number: 9 (0x9)
    Signature Algorithm: sha1WithRSAEncryption
        Issuer: C=GB, O=Certificate Transparency CA, ST=Wales, L=Erw Wen
        Validity
            Not Before: Jun  1 00:00:00 2012 GMT
            Not After : Jun  1 00:00:00 2022 GMT
        Subject: C=GB, O=Certificate Transparency Intermediate CA, ST=Wales, L=Erw Wen
        Subject Public Key Info:
            Public Key Algorithm: rsaEncryption
                Public-Key: (1024 bit)
                Modulus:
                    00:a7:e1:9c:9d:be:3e:34:87:37:a8:04:be:61:80:
                    8b:a8:3c:17:a6:7f:69:02:65:c0:bd:71:e2:59:30:
                    4a:bd:36:50:a4:74:02:20:91:18:13:23:3b:6a:87:
                    16:e7:49:4b:2c:dc:3a:fd:96:34:e2:e5:ed:c2:6d:
                    f8:10:49:f1:92:f5:5d:7a:10:02:f4:bf:f0:b5:60:
                    cc:62:38:00:df:92:83:d1:90:8b:ce:ab:67:69:6b:
                    c9:56:51:e5:bd:38:a4:71:5c:a9:f6:bb:d1:12:f1:
                    97:dc:28:02:d9:15:c7:82:1f:40:1b:b2:a9:11:03:
                    ac:60:7d:bc:d3:1b:31:11:75
                Exponent: 65537 (0x10001)
        X509v3 extensions:
            X509v3 Subject Key Identifier: 
                0D:19:29:3B:89:DD:BC:E3:1E:DF:7F:85:45:D4:4E:59:3C:B1:63:74
            X509v3 Authority Key Identifier: 
                keyid:36:33:12:99:DB:DC:38:9D:1C:CC:FE:31:C0:8B:89:32:50:1A:8F:7C
                DirName:/C=GB/O=Certificate Transparency CA/ST=Wales/L=Erw Wen
                serial:00

            X509v3 Basic Constraints: 
                CA:TRUE
    Signature Algorithm: sha1WithRSAEncryption
         41:c3:81:45:27:6b:0a:0e:f2:fe:12:ac:25:8b:2c:af:34:76:
         01:d8:85:98:4f:34:33:ac:d0:33:e3:15:39:dc:2d:45:f7:94:
         4a:b5:e4:68:f2:da:9b:21:05:2b:16:21:9c:0e:e4:58:6b:e8:
         31:fb:bb:58:6b:6f:b1:84:d7:db:2f:83:a1:b4:a1:e1:7a:41:
         a9:e2:65:7e:98:44:20:52:c6:cd:dc:8d:bd:c3:97:12:33:9a:
         ef:2b:38:d9:b2:b4:52:9c:ca:3c:43:8f:d6:48:06:70:f1:49:
         3d:54:8e:0a:1b:d1:0d:d0:dd:62:3f:3f:38:7a:14:30:32:96:
         53:6c
-----BEGIN CERTIFICATE-----
MIIC3TCCAkagAwIBAgIBCTANBgkqhkiG9w0BAQUFADBVMQswCQYDVQQGEwJHQjEk
MCIGA1UEChMbQ2VydGlmaWNhdGUgVHJhbnNwYXJlbmN5IENBMQ4wDAYDVQQIEwVX
YWxlczEQMA4GA1UEBxMHRXJ3IFdlbjAeFw0xMjA2MDEwMDAwMDBaFw0yMjA2MDEw
MDAwMDBaMGIxCzAJBgNVBAYTAkdCMTEwLwYDVQQKEyhDZXJ0aWZpY2F0ZSBUcmFu
c3BhcmVuY3kgSW50ZXJtZWRpYXRlIENBMQ4wDAYDVQQIEwVXYWxlczEQMA4GA1UE
BxMHRXJ3IFdlbjCBnzANBgkqhkiG9w0BAQEFAAOBjQAwgYkCgYEAp+Gcnb4+NIc3
qAS+YYCLqDwXpn9pAmXAvXHiWTBKvTZQpHQCIJEYEyM7aocW50lLLNw6/ZY04uXt
wm34EEnxkvVdehAC9L/wtWDMYjgA35KD0ZCLzqtnaWvJVlHlvTikcVyp9rvREvGX
3CgC2RXHgh9AG7KpEQOsYH280xsxEXUCAwEAAaOBrzCBrDAdBgNVHQ4EFgQUDRkp
O4ndvOMe33+FRdROWTyxY3QwfQYDVR0jBHYwdIAUNjMSmdvcOJ0czP4xwIuJMlAa
j3yhWaRXMFUxCzAJBgNVBAYTAkdCMSQwIgYDVQQKExtDZXJ0aWZpY2F0ZSBUcmFu
c3BhcmVuY3kgQ0ExDjAMBgNVBAgTBVdhbGVzMRAwDgYDVQQHEwdFcncgV2VuggEA
MAwGA1UdEwQFMAMBAf8wDQYJKoZIhvcNAQEFBQADgYEAQcOBRSdrCg7y/hKsJYss
rzR2AdiFmE80M6zQM+MVOdwtRfeUSrXkaPLamyEFKxYhnA7kWGvoMfu7WGtvsYTX
2y+DobSh4XpBqeJlfphEIFLGzdyNvcOXEjOa7ys42bK0UpzKPEOP1kgGcPFJPVSO
ChvRDdDdYj8/OHoUMDKWU2w=
-----END CERTIFICATE-----
-----BEGIN CERTIFICATE-----
MIIBJDCCARigAwIBAgIRAKS55j/qHeaDkCNej455NlMwCwYJKoZIhvcNAQEFMA8x
DTALBgNVBAMTBFRlc3QwHhcNMTMwMjE5MTg1NDI5WhcNMTMwMjE5MTg1NDMwWjAP
MQ0wCwYDVQQDEwR0c2VUMBowDQYJKoZIhvcNAQEBBQADCQAwBgIBAwIBA6OBkjCB
jzCBjAYKKwYBBAHWeQIEAQEB/wR7BHkAdwB1AAw9n+AIVLrLVOMZVt9yuQb3E3AO
ZYyoRhFLCTDBIfiUAAABPPPOmyEAAAQDAEYwRAIgHlK/jqvlCVI7L7zZx/oDH6W+
HK/3fTU6yhBCJhPNbvgCIFJLmOcwrSlNuEeGZHre+ogmaPSQnRYwN286xNz28+00
MAMGAQADAQA=
-----END CERTIFICATE-----
