Certificate:
    Data:
        Version: 3 (0x2)
        Serial Number: 1 (0x1)
        Signature Algorithm: sha1WithRSAEncryption
        Issuer: C=GB, O=Certificate Transparency Intermediate CA, ST=Wales, L=Erw Wen
        Validity
            Not Before: Jun  1 00:00:00 2012 GMT
            Not After : Jun  1 00:00:00 2022 GMT
        Subject: C=GB, O=Certificate Transparency, ST=Wales, L=Erw Wen
        Subject Public Key Info:
            Public Key Algorithm: rsaEncryption
            RSA Public Key: (1024 bit)
                Modulus (1024 bit):
                    00:d3:2e:e6:2c:1a:1f:f9:24:6c:05:e0:3d:d7:e3:
                    5d:36:4e:2d:6d:b1:86:44:8c:ac:16:18:92:f6:84:
                    93:4d:b3:90:15:bc:23:7b:27:c2:df:dd:07:ec:37:
                    e5:b3:ba:d9:e8:f0:6c:70:63:5c:55:fe:c2:f7:18:
                    03:09:70:04:13:31:44:b9:db:c5:e6:40:96:85:d5:
                    50:56:e9:ba:d4:7a:9b:78:d6:d5:09:c0:8e:33:b7:
                    a3:1d:ba:07:92:9d:25:23:67:86:e0:a6:b5:5f:18:
                    ad:b8:bc:34:2c:34:56:2e:4e:c9:ce:c0:37:a4:b4:
                    91:27:3a:93:13:ab:27:37:c5
                Exponent: 65537 (0x10001)
        X509v3 extensions:
            X509v3 Subject Key Identifier: 
                25:1B:1B:9E:2A:9E:40:73:FB:1A:9E:06:27:A7:F2:09:EE:70:D7:61
            X509v3 Authority Key Identifier: 
                keyid:DF:25:25:BA:DE:C5:74:E2:F1:BF:21:DC:BB:38:89:E2:18:A3:40:E8
                DirName:/C=GB/O=Certificate Transparency CA/ST=Wales/L=Erw Wen
                serial:04

            X509v3 Basic Constraints: 
                CA:FALSE
    Signature Algorithm: sha1WithRSAEncryption
        79:2d:43:92:ae:43:95:8d:05:bf:60:f0:0e:81:3e:75:74:4a:
        41:61:42:1a:8b:ba:80:2b:95:c2:00:5b:77:82:5f:c0:a0:67:
        dc:ea:f0:9b:00:aa:5d:22:90:ed:78:cd:19:96:bf:3f:57:a5:
        12:03:cb:73:b1:58:8a:fe:ad:65:41:cf:62:41:0f:1f:ec:f9:
        94:88:6f:83:30:98:e4:d2:45:13:c7:f9:c4:45:00:bb:7e:19:
        53:38:6a:e4:bf:ac:3f:3c:88:a3:9e:2a:b6:0c:ee:88:94:13:
        72:05:13:98:cc:36:bf:15:af:97:c8:e5:57:73:3a:cb:27:d0:
        39:32
-----BEGIN CERTIFICATE-----
MIIC1zCCAkCgAwIBAgIBATANBgkqhkiG9w0BAQUFADBiMQswCQYDVQQGEwJHQjEx
MC8GA1UEChMoQ2VydGlmaWNhdGUgVHJhbnNwYXJlbmN5IEludGVybWVkaWF0ZSBD
QTEOMAwGA1UECBMFV2FsZXMxEDAOBgNVBAcTB0VydyBXZW4wHhcNMTIwNjAxMDAw
MDAwWhcNMjIwNjAxMDAwMDAwWjBSMQswCQYDVQQGEwJHQjEhMB8GA1UEChMYQ2Vy
dGlmaWNhdGUgVHJhbnNwYXJlbmN5MQ4wDAYDVQQIEwVXYWxlczEQMA4GA1UEBxMH
RXJ3IFdlbjCBnzANBgkqhkiG9w0BAQEFAAOBjQAwgYkCgYEA0y7mLBof+SRsBeA9
1+NdNk4tbbGGRIysFhiS9oSTTbOQFbwjeyfC390H7Dfls7rZ6PBscGNcVf7C9xgD
CXAEEzFEudvF5kCWhdVQVum61HqbeNbVCcCOM7ejHboHkp0lI2eG4Ka1XxituLw0
LDRWLk7JzsA3pLSRJzqTE6snN8UCAwEAAaOBrDCBqTAdBgNVHQ4EFgQUJRsbniqe
QHP7Gp4GJ6fyCe5w12EwfQYDVR0jBHYwdIAU3yUlut7FdOLxvyHcuziJ4hijQOih
WaRXMFUxCzAJBgNVBAYTAkdCMSQwIgYDVQQKExtDZXJ0aWZpY2F0ZSBUcmFuc3Bh
cmVuY3kgQ0ExDjAMBgNVBAgTBVdhbGVzMRAwDgYDVQQHEwdFcncgV2VuggEEMAkG
A1UdEwQCMAAwDQYJKoZIhvcNAQEFBQADgYEAeS1Dkq5DlY0Fv2DwDoE+dXRKQWFC
Gou6gCuVwgBbd4JfwKBn3OrwmwCqXSKQ7XjNGZa/P1elEgPLc7FYiv6tZUHPYkEP
H+z5lIhvgzCY5NJFE8f5xEUAu34ZUzhq5L+sPzyIo54qtgzuiJQTcgUTmMw2vxWv
l8jlV3M6yyfQOTI=
-----END CERTIFICATE-----
