Certificate:
    Data:
        Version: 3 (0x2)
        Serial Number: 8 (0x8)
    Signature Algorithm: sha1WithRSAEncryption
        Issuer: C=GB, O=Certificate Transparency CA, ST=Wales, L=Erw Wen
        Validity
            Not Before: Jun  1 00:00:00 2012 GMT
            Not After : Jun  1 00:00:00 2022 GMT
        Subject: C=GB, O=Certificate Transparency, ST=Wales, L=Erw Wen
        Subject Public Key Info:
            Public Key Algorithm: rsaEncryption
                Public-Key: (1024 bit)
                Modulus:
                    00:c7:b0:e1:c4:86:02:48:49:c0:4b:58:4d:c3:f0:
                    93:60:d8:8a:93:99:4e:9e:c5:61:da:5a:37:2c:f1:
                    7c:82:15:82:e3:1d:8d:64:e4:f2:d1:c3:25:7e:88:
                    36:dd:dd:df:f3:ab:19:da:41:3a:c8:69:e0:53:c4:
                    2f:e5:7d:5f:a9:2d:bd:da:e7:7e:2f:b1:88:26:4a:
                    72:44:6a:e3:1e:bc:dc:49:1c:73:1d:e8:83:fa:31:
                    c7:e6:d0:aa:fb:ad:58:86:98:ed:4b:9f:e6:92:af:
                    94:a4:ab:7e:71:6e:cb:64:33:21:45:50:40:a7:76:
                    a7:d8:e7:1e:b9:92:1e:45:79
                Exponent: 65537 (0x10001)
        X509v3 extensions:
            X509v3 Subject Key Identifier: 
                95:5F:C1:84:74:94:CB:63:A0:F7:30:77:D1:68:F4:3B:B9:57:B9:3E
            X509v3 Authority Key Identifier: 
                keyid:36:33:12:99:DB:DC:38:9D:1C:CC:FE:31:C0:8B:89:32:50:1A:8F:7C
                DirName:/C=GB/O=Certificate Transparency CA/ST=Wales/L=Erw Wen
                serial:00

            X509v3 Basic Constraints: 
                CA:FALSE
            1.3.6.1.4.1.11129.2.4.2: 
                .y.w.u..=...T..T..V.r....p.e..F.K.0.!.....<.........F0D. ....u.kn..'.d.C..._.[W..\m.N.n1R. D.1g...3.....#c../..QvWV....&\R
    Signature Algorithm: sha1WithRSAEncryption
         c6:55:af:b4:02:24:89:82:84:7b:c7:74:0a:df:e3:ac:f0:20:
         d2:6c:be:64:b2:ac:a6:43:35:d6:b9:b0:d4:8d:71:76:0b:f5:
         11:8b:f3:f1:68:9b:25:8b:f1:83:8b:07:bd:97:31:53:65:82:
         ec:21:63:f9:cc:2e:cb:59:73:44:45:cf:f2:3e:35:fb:1d:09:
         0b:c9:34:ce:28:ce:33:3f:8d:46:80:99:99:b4:c5:ff:49:9e:
         01:e6:bb:1d:79:07:15:3f:ee:06:ea:5f:7e:a3:f8:4e:ea:3d:
         2e:d1:2d:e3:a7:7d:93:38:5b:15:fa:9b:78:94:4f:64:55:82:
         11:ca
-----BEGIN CERTIFICATE-----
MIIDWDCCAsGgAwIBAgIBCDANBgkqhkiG9w0BAQUFADBVMQswCQYDVQQGEwJHQjEk
MCIGA1UEChMbQ2VydGlmaWNhdGUgVHJhbnNwYXJlbmN5IENBMQ4wDAYDVQQIEwVX
YWxlczEQMA4GA1UEBxMHRXJ3IFdlbjAeFw0xMjA2MDEwMDAwMDBaFw0yMjA2MDEw
MDAwMDBaMFIxCzAJBgNVBAYTAkdCMSEwHwYDVQQKExhDZXJ0aWZpY2F0ZSBUcmFu
c3BhcmVuY3kxDjAMBgNVBAgTBVdhbGVzMRAwDgYDVQQHEwdFcncgV2VuMIGfMA0G
CSqGSIb3DQEBAQUAA4GNADCBiQKBgQDHsOHEhgJIScBLWE3D8JNg2IqTmU6exWHa
Wjcs8XyCFYLjHY1k5PLRwyV+iDbd3d/zqxnaQTrIaeBTxC/lfV+pLb3a534vsYgm
SnJEauMevNxJHHMd6IP6Mcfm0Kr7rViGmO1Ln+aSr5Skq35xbstkMyFFUECndqfY
5x65kh5FeQIDAQABo4IBOTCCATUwHQYDVR0OBBYEFJVfwYR0lMtjoPcwd9Fo9Du5
V7k+MH0GA1UdIwR2MHSAFDYzEpnb3DidHMz+McCLiTJQGo98oVmkVzBVMQswCQYD
VQQGEwJHQjEkMCIGA1UEChMbQ2VydGlmaWNhdGUgVHJhbnNwYXJlbmN5IENBMQ4w
DAYDVQQIEwVXYWxlczEQMA4GA1UEBxMHRXJ3IFdlboIBADAJBgNVHRMEAjAAMIGJ
BgorBgEEAdZ5AgQCBHsEeQB3AHUADD2f4AhUustU4xlW33K5BvcTcA5ljKhGEUsJ
MMEh+JQAAAE8886Z1gAABAMARjBEAiAM7PzQdf9rbpsIJ4FkuUMX+J1fFVtXpcZc
be1Ozm4xUgIgRBANMWeu2R4zta4SiX8jY+oSL8Z/UXZXVt3Px7EmXFIwDQYJKoZI
hvcNAQEFBQADgYEAxlWvtAIkiYKEe8d0Ct/jrPAg0my+ZLKspkM11rmw1I1xdgv1
EYvz8WibJYvxg4sHvZcxU2WC7CFj+cwuy1lzREXP8j41+x0JC8k0zijOMz+NRoCZ
mbTF/0meAea7HXkHFT/uBupffqP4Tuo9LtEt46d9kzhbFfqbeJRPZFWCEco=
-----END CERTIFICATE-----
