Certificate:
    Data:
        Version: 3 (0x2)
        Serial Number: 3 (0x3)
        Signature Algorithm: sha1WithRSAEncryption
        Issuer: C=GB, O=Certificate Transparency CA, ST=Wales, L=Erw Wen
        Validity
            Not Before: Jun  1 00:00:00 2012 GMT
            Not After : Jun  1 00:00:00 2022 GMT
        Subject: C=GB, O=Certificate Transparency, ST=Wales, L=Erw Wen
        Subject Public Key Info:
            Public Key Algorithm: rsaEncryption
            RSA Public Key: (1024 bit)
                Modulus (1024 bit):
                    00:b8:74:22:67:89:8b:99:ba:6b:fd:6e:6f:7a:da:
                    8e:54:33:7f:58:fe:b7:22:7c:46:24:84:37:ba:5f:
                    89:b0:07:cb:e1:ec:b4:54:5b:38:ed:23:fd:db:f6:
                    b9:74:2c:af:b6:38:15:7f:68:18:47:76:a1:b3:8a:
                    b3:93:18:dd:d7:34:48:9b:4d:75:01:17:cd:83:a2:
                    20:a7:b5:2f:29:5d:1e:18:57:14:69:a5:81:c2:3c:
                    68:c5:7d:97:37:61:d9:78:7a:09:1f:b5:86:49:36:
                    b1:66:53:5e:21:b4:27:e3:c6:d6:90:b2:e9:1a:87:
                    f3:6b:7e:c2:6f:59:ce:53:b5
                Exponent: 65537 (0x10001)
        X509v3 extensions:
            X509v3 Subject Key Identifier: 
                11:84:E1:18:7C:87:95:6D:FF:C3:1D:D0:52:1F:F5:64:EF:BE:AE:8D
            X509v3 Authority Key Identifier: 
                keyid:A3:B8:D8:9B:A2:69:0D:FB:48:BB:BF:87:C1:03:9D:DC:E5:62:56:C6
                DirName:/C=GB/O=Certificate Transparency CA/ST=Wales/L=Erw Wen
                serial:00

            X509v3 Basic Constraints: 
                CA:FALSE
            1.2.3.1: 
                ....X.^....H0F.!..S..2....k^.n....T..o.-h1...[....!...B..[2.RV..Q#....@...>..SA.o...
    Signature Algorithm: sha1WithRSAEncryption
        15:e9:83:c3:b7:d2:3e:81:4e:90:a5:d7:48:71:50:28:67:fb:
        45:a6:e1:9a:1b:d1:0a:7f:49:a1:41:ca:6c:d7:0c:4a:28:34:
        1b:62:52:31:a5:dd:a4:ba:8f:f8:97:ce:0e:72:e8:1c:89:ac:
        01:ea:28:f2:cd:81:2b:3d:bd:83:19:95:e4:fb:8a:7a:fc:9a:
        e8:9f:9a:06:ff:b4:21:64:ba:df:d0:32:a1:ee:98:3e:81:b5:
        9d:a4:e4:91:6a:6f:1f:0d:16:98:81:d4:dc:c1:42:ee:38:af:
        d5:62:85:07:b0:05:37:96:b5:e5:b4:64:d3:ee:41:c4:6a:b1:
        dd:1c
-----BEGIN CERTIFICATE-----
MIIDKTCCApKgAwIBAgIBAzANBgkqhkiG9w0BAQUFADBVMQswCQYDVQQGEwJHQjEk
MCIGA1UEChMbQ2VydGlmaWNhdGUgVHJhbnNwYXJlbmN5IENBMQ4wDAYDVQQIEwVX
YWxlczEQMA4GA1UEBxMHRXJ3IFdlbjAeFw0xMjA2MDEwMDAwMDBaFw0yMjA2MDEw
MDAwMDBaMFIxCzAJBgNVBAYTAkdCMSEwHwYDVQQKExhDZXJ0aWZpY2F0ZSBUcmFu
c3BhcmVuY3kxDjAMBgNVBAgTBVdhbGVzMRAwDgYDVQQHEwdFcncgV2VuMIGfMA0G
CSqGSIb3DQEBAQUAA4GNADCBiQKBgQC4dCJniYuZumv9bm962o5UM39Y/rcifEYk
hDe6X4mwB8vh7LRUWzjtI/3b9rl0LK+2OBV/aBhHdqGzirOTGN3XNEibTXUBF82D
oiCntS8pXR4YVxRppYHCPGjFfZc3Ydl4egkftYZJNrFmU14htCfjxtaQsukah/Nr
fsJvWc5TtQIDAQABo4IBCjCCAQYwHQYDVR0OBBYEFBGE4Rh8h5Vt/8Md0FIf9WTv
vq6NMH0GA1UdIwR2MHSAFKO42JuiaQ37SLu/h8EDndzlYlbGoVmkVzBVMQswCQYD
VQQGEwJHQjEkMCIGA1UEChMbQ2VydGlmaWNhdGUgVHJhbnNwYXJlbmN5IENBMQ4w
DAYDVQQIEwVXYWxlczEQMA4GA1UEBxMHRXJ3IFdlboIBADAJBgNVHRMEAjAAMFsG
AyoDAQRUAAAAAFiLXuEEAwBIMEYCIQD/UxPcMo+lv4FrXo9uFvWenlQF7W/VLWgx
uvfMW7QCsAIhAL26QrAdWzLlUlb9llEj/+6fG0Ce0IY+pO9TQY9vAbcRMA0GCSqG
SIb3DQEBBQUAA4GBABXpg8O30j6BTpCl10hxUChn+0Wm4Zob0Qp/SaFBymzXDEoo
NBtiUjGl3aS6j/iXzg5y6ByJrAHqKPLNgSs9vYMZleT7inr8muifmgb/tCFkut/Q
MqHumD6BtZ2k5JFqbx8NFpiB1NzBQu44r9VihQewBTeWteW0ZNPuQcRqsd0c
-----END CERTIFICATE-----
