Certificate:
    Data:
        Version: 3 (0x2)
        Serial Number: 6 (0x6)
        Signature Algorithm: sha1WithRSAEncryption
        Issuer: C=GB, O=Certificate Transparency CA, ST=Wales, L=Erw Wen
        Validity
            Not Before: Jun  1 00:00:00 2012 GMT
            Not After : Jun  1 00:00:00 2022 GMT
        Subject: C=GB, O=Certificate Transparency, ST=Wales, L=Erw Wen
        Subject Public Key Info:
            Public Key Algorithm: rsaEncryption
            RSA Public Key: (1024 bit)
                Modulus (1024 bit):
                    00:c6:86:34:89:92:f7:4b:2a:c9:34:7e:ba:e1:f6:
                    80:ed:b4:dc:02:57:91:3b:0a:f7:13:b9:ae:3b:94:
                    50:02:d5:49:bc:0d:74:0e:95:1f:31:bd:eb:7c:0f:
                    6c:66:99:03:90:77:90:89:97:9a:96:fa:73:ff:b8:
                    0d:0b:55:62:ca:08:60:0e:c7:c8:ad:ef:91:c8:19:
                    5a:69:4f:9d:37:f0:c0:b7:b7:98:28:99:7d:87:86:
                    4e:c7:df:ca:cf:01:cc:c3:22:c5:77:8b:58:ac:cf:
                    b0:79:0a:22:e1:64:92:e4:71:31:48:3d:b9:55:e3:
                    18:67:25:4c:be:65:32:84:b7
                Exponent: 65537 (0x10001)
        X509v3 extensions:
            X509v3 Subject Key Identifier: 
                38:39:46:38:D9:DD:32:9E:59:74:08:F8:BD:C8:E3:00:85:A9:63:8A
            X509v3 Authority Key Identifier: 
                keyid:B3:F6:3C:85:31:9B:1B:E4:1D:CD:FA:15:FF:18:13:84:DC:6E:18:EF
                DirName:/C=GB/O=Certificate Transparency CA/ST=Wales/L=Erw Wen
                serial:00

            X509v3 Basic Constraints: 
                CA:FALSE
            1.3.6.1.4.1.11129.2.4.2: 
                .y.w.u..P.n.m..b.}ri..{.M...R...M.|C.o(...:.........F0D. f..;.w.).....>x.8..0...xU%.."... 
....]Re.....y9x.:Q..|.C...H..81
    Signature Algorithm: sha1WithRSAEncryption
        24:92:7b:3d:13:73:37:c1:1c:f1:83:43:ac:49:23:8b:dc:a0:
        f8:4b:45:23:c8:70:64:0b:41:2c:49:7e:c8:ed:ef:33:9a:84:
        9e:dc:f5:30:26:b5:4f:58:91:ae:e3:68:4b:52:d2:77:70:74:
        9d:0a:74:11:3b:c8:89:01:01:51:8c:ce:2b:51:d8:32:7d:f8:
        f0:c2:78:ce:76:4f:48:e0:a6:8f:e4:7c:be:65:79:de:4b:ea:
        72:26:af:d6:e8:97:85:1e:b5:11:5a:2e:8a:3f:9a:d6:ce:fd:
        23:1e:88:78:dd:b3:e0:0a:cf:3d:4a:63:a8:cd:72:19:d5:2d:
        95:64
-----BEGIN CERTIFICATE-----
MIIDWDCCAsGgAwIBAgIBBjANBgkqhkiG9w0BAQUFADBVMQswCQYDVQQGEwJHQjEk
MCIGA1UEChMbQ2VydGlmaWNhdGUgVHJhbnNwYXJlbmN5IENBMQ4wDAYDVQQIEwVX
YWxlczEQMA4GA1UEBxMHRXJ3IFdlbjAeFw0xMjA2MDEwMDAwMDBaFw0yMjA2MDEw
MDAwMDBaMFIxCzAJBgNVBAYTAkdCMSEwHwYDVQQKExhDZXJ0aWZpY2F0ZSBUcmFu
c3BhcmVuY3kxDjAMBgNVBAgTBVdhbGVzMRAwDgYDVQQHEwdFcncgV2VuMIGfMA0G
CSqGSIb3DQEBAQUAA4GNADCBiQKBgQDGhjSJkvdLKsk0frrh9oDttNwCV5E7CvcT
ua47lFAC1Um8DXQOlR8xvet8D2xmmQOQd5CJl5qW+nP/uA0LVWLKCGAOx8it75HI
GVppT5038MC3t5gomX2Hhk7H38rPAczDIsV3i1isz7B5CiLhZJLkcTFIPblV4xhn
JUy+ZTKEtwIDAQABo4IBOTCCATUwHQYDVR0OBBYEFDg5RjjZ3TKeWXQI+L3I4wCF
qWOKMH0GA1UdIwR2MHSAFLP2PIUxmxvkHc36Ff8YE4TcbhjvoVmkVzBVMQswCQYD
VQQGEwJHQjEkMCIGA1UEChMbQ2VydGlmaWNhdGUgVHJhbnNwYXJlbmN5IENBMQ4w
DAYDVQQIEwVXYWxlczEQMA4GA1UEBxMHRXJ3IFdlboIBADAJBgNVHRMEAjAAMIGJ
BgorBgEEAdZ5AgQCBHsEeQB3AHUArVCZbgFtAohin31yaY/Te9xNHxrhUrHAwE2E
fEOXbygAAAE6l5N/3gAABAMARjBEAiBmAcY7nncOKbEagAaDPnjQOJ4N3jDF9wF4
VSXQ+SLNBgIgCuHYl55dUmUO/9cBkXk5eMo6UfAffA9DHX/hSNTHODEwDQYJKoZI
hvcNAQEFBQADgYEAJJJ7PRNzN8Ec8YNDrEkji9yg+EtFI8hwZAtBLEl+yO3vM5qE
ntz1MCa1T1iRruNoS1LSd3B0nQp0ETvIiQEBUYzOK1HYMn348MJ4znZPSOCmj+R8
vmV53kvqciav1uiXhR61EVouij+a1s79Ix6IeN2z4ArPPUpjqM1yGdUtlWQ=
-----END CERTIFICATE-----
