Certificate:
    Data:
        Version: 3 (0x2)
        Serial Number: 3 (0x3)
        Signature Algorithm: sha1WithRSAEncryption
        Issuer: C=GB, O=Certificate Transparency PreCA, ST=Wales, L=Erw Wen
        Validity
            Not Before: Jun  1 00:00:00 2012 GMT
            Not After : Jun  1 00:00:00 2022 GMT
        Subject: C=GB, O=Certificate Transparency, ST=Wales, L=Erw Wen
        Subject Public Key Info:
            Public Key Algorithm: rsaEncryption
            RSA Public Key: (1024 bit)
                Modulus (1024 bit):
                    00:b8:74:22:67:89:8b:99:ba:6b:fd:6e:6f:7a:da:
                    8e:54:33:7f:58:fe:b7:22:7c:46:24:84:37:ba:5f:
                    89:b0:07:cb:e1:ec:b4:54:5b:38:ed:23:fd:db:f6:
                    b9:74:2c:af:b6:38:15:7f:68:18:47:76:a1:b3:8a:
                    b3:93:18:dd:d7:34:48:9b:4d:75:01:17:cd:83:a2:
                    20:a7:b5:2f:29:5d:1e:18:57:14:69:a5:81:c2:3c:
                    68:c5:7d:97:37:61:d9:78:7a:09:1f:b5:86:49:36:
                    b1:66:53:5e:21:b4:27:e3:c6:d6:90:b2:e9:1a:87:
                    f3:6b:7e:c2:6f:59:ce:53:b5
                Exponent: 65537 (0x10001)
        X509v3 extensions:
            X509v3 Subject Key Identifier: 
                11:84:E1:18:7C:87:95:6D:FF:C3:1D:D0:52:1F:F5:64:EF:BE:AE:8D
            X509v3 Authority Key Identifier: 
                keyid:D8:75:DE:31:1A:F7:EC:B1:6F:E0:00:34:58:6B:48:27:E4:70:27:11
                DirName:/C=GB/O=Certificate Transparency CA/ST=Wales/L=Erw Wen
                serial:01

            X509v3 Basic Constraints: 
                CA:FALSE
            1.2.3.2: critical
                poison
    Signature Algorithm: sha1WithRSAEncryption
        7e:f5:16:39:ea:c5:58:b4:e5:00:bf:e8:58:04:08:3c:44:7e:
        8c:76:86:11:99:97:1c:64:cd:8b:62:04:d5:fb:be:0c:bc:54:
        2a:b4:12:c8:a9:b7:d3:71:56:fb:df:4f:70:00:a0:f1:4b:ef:
        d9:24:d9:0e:ce:80:15:a6:2f:c6:18:3a:4f:d0:93:d3:30:7f:
        a1:f3:6d:0b:95:0f:a2:38:64:90:fb:7f:41:0f:f2:f8:18:b1:
        f8:51:1e:3f:a9:c7:1e:e6:4c:68:39:fd:55:df:d1:d5:f7:24:
        97:ef:f8:f6:dc:e6:23:4b:4f:40:5d:7f:fe:0b:0e:56:12:6c:
        b7:12
-----BEGIN CERTIFICATE-----
MIIC3zCCAkigAwIBAgIBAzANBgkqhkiG9w0BAQUFADBYMQswCQYDVQQGEwJHQjEn
MCUGA1UEChMeQ2VydGlmaWNhdGUgVHJhbnNwYXJlbmN5IFByZUNBMQ4wDAYDVQQI
EwVXYWxlczEQMA4GA1UEBxMHRXJ3IFdlbjAeFw0xMjA2MDEwMDAwMDBaFw0yMjA2
MDEwMDAwMDBaMFIxCzAJBgNVBAYTAkdCMSEwHwYDVQQKExhDZXJ0aWZpY2F0ZSBU
cmFuc3BhcmVuY3kxDjAMBgNVBAgTBVdhbGVzMRAwDgYDVQQHEwdFcncgV2VuMIGf
MA0GCSqGSIb3DQEBAQUAA4GNADCBiQKBgQC4dCJniYuZumv9bm962o5UM39Y/rci
fEYkhDe6X4mwB8vh7LRUWzjtI/3b9rl0LK+2OBV/aBhHdqGzirOTGN3XNEibTXUB
F82DoiCntS8pXR4YVxRppYHCPGjFfZc3Ydl4egkftYZJNrFmU14htCfjxtaQsuka
h/NrfsJvWc5TtQIDAQABo4G+MIG7MB0GA1UdDgQWBBQRhOEYfIeVbf/DHdBSH/Vk
776ujTB9BgNVHSMEdjB0gBTYdd4xGvfssW/gADRYa0gn5HAnEaFZpFcwVTELMAkG
A1UEBhMCR0IxJDAiBgNVBAoTG0NlcnRpZmljYXRlIFRyYW5zcGFyZW5jeSBDQTEO
MAwGA1UECBMFV2FsZXMxEDAOBgNVBAcTB0VydyBXZW6CAQEwCQYDVR0TBAIwADAQ
BgMqAwIBAf8EBnBvaXNvbjANBgkqhkiG9w0BAQUFAAOBgQB+9RY56sVYtOUAv+hY
BAg8RH6MdoYRmZccZM2LYgTV+74MvFQqtBLIqbfTcVb7309wAKDxS+/ZJNkOzoAV
pi/GGDpP0JPTMH+h820LlQ+iOGSQ+39BD/L4GLH4UR4/qcce5kxoOf1V39HV9ySX
7/j23OYjS09AXX/+Cw5WEmy3Eg==
-----END CERTIFICATE-----
