Certificate:
    Data:
        Version: 3 (0x2)
        Serial Number: 5 (0x5)
        Signature Algorithm: sha1WithRSAEncryption
        Issuer: C=GB, O=Certificate Transparency CA, ST=Wales, L=Erw Wen
        Validity
            Not Before: Jun  1 00:00:00 2012 GMT
            Not After : Jun  1 00:00:00 2022 GMT
        Subject: C=GB, O=Certificate Transparency, ST=Wales, L=Erw Wen
        Subject Public Key Info:
            Public Key Algorithm: rsaEncryption
            RSA Public Key: (1024 bit)
                Modulus (1024 bit):
                    00:b8:74:22:67:89:8b:99:ba:6b:fd:6e:6f:7a:da:
                    8e:54:33:7f:58:fe:b7:22:7c:46:24:84:37:ba:5f:
                    89:b0:07:cb:e1:ec:b4:54:5b:38:ed:23:fd:db:f6:
                    b9:74:2c:af:b6:38:15:7f:68:18:47:76:a1:b3:8a:
                    b3:93:18:dd:d7:34:48:9b:4d:75:01:17:cd:83:a2:
                    20:a7:b5:2f:29:5d:1e:18:57:14:69:a5:81:c2:3c:
                    68:c5:7d:97:37:61:d9:78:7a:09:1f:b5:86:49:36:
                    b1:66:53:5e:21:b4:27:e3:c6:d6:90:b2:e9:1a:87:
                    f3:6b:7e:c2:6f:59:ce:53:b5
                Exponent: 65537 (0x10001)
        X509v3 extensions:
            X509v3 Subject Key Identifier: 
                11:84:E1:18:7C:87:95:6D:FF:C3:1D:D0:52:1F:F5:64:EF:BE:AE:8D
            X509v3 Authority Key Identifier: 
                keyid:A3:B8:D8:9B:A2:69:0D:FB:48:BB:BF:87:C1:03:9D:DC:E5:62:56:C6
                DirName:/C=GB/O=Certificate Transparency CA/ST=Wales/L=Erw Wen
                serial:00

            X509v3 Basic Constraints: 
                CA:FALSE
            1.2.3.1: 
                ....X.`7...G0E. X".1......8.0............v....(j.!...W`.....7b.se.M
#...v.......".
    Signature Algorithm: sha1WithRSAEncryption
        05:56:da:b6:c3:05:4c:5e:fd:8d:53:8a:44:1f:d9:41:34:83:
        0e:4a:d7:57:5a:40:ef:8e:2d:f2:b8:90:31:0a:3e:44:74:3e:
        71:4f:28:73:7d:c6:e1:1a:0c:5f:0d:1a:3d:b0:a3:5b:90:5f:
        a8:a0:50:f0:1f:87:d3:d1:cb:67:3a:1f:69:ea:00:40:3c:b7:
        57:0a:67:48:ba:23:e1:e3:83:72:03:f8:ab:8c:8b:28:bb:5e:
        aa:79:9c:60:28:48:60:a5:c3:a1:f8:9d:66:4c:03:f7:65:46:
        f7:fa:9b:1b:bd:2f:49:a8:41:88:b3:5e:e1:46:2d:51:f8:54:
        61:5f
-----BEGIN CERTIFICATE-----
MIIDKDCCApGgAwIBAgIBBTANBgkqhkiG9w0BAQUFADBVMQswCQYDVQQGEwJHQjEk
MCIGA1UEChMbQ2VydGlmaWNhdGUgVHJhbnNwYXJlbmN5IENBMQ4wDAYDVQQIEwVX
YWxlczEQMA4GA1UEBxMHRXJ3IFdlbjAeFw0xMjA2MDEwMDAwMDBaFw0yMjA2MDEw
MDAwMDBaMFIxCzAJBgNVBAYTAkdCMSEwHwYDVQQKExhDZXJ0aWZpY2F0ZSBUcmFu
c3BhcmVuY3kxDjAMBgNVBAgTBVdhbGVzMRAwDgYDVQQHEwdFcncgV2VuMIGfMA0G
CSqGSIb3DQEBAQUAA4GNADCBiQKBgQC4dCJniYuZumv9bm962o5UM39Y/rcifEYk
hDe6X4mwB8vh7LRUWzjtI/3b9rl0LK+2OBV/aBhHdqGzirOTGN3XNEibTXUBF82D
oiCntS8pXR4YVxRppYHCPGjFfZc3Ydl4egkftYZJNrFmU14htCfjxtaQsukah/Nr
fsJvWc5TtQIDAQABo4IBCTCCAQUwHQYDVR0OBBYEFBGE4Rh8h5Vt/8Md0FIf9WTv
vq6NMH0GA1UdIwR2MHSAFKO42JuiaQ37SLu/h8EDndzlYlbGoVmkVzBVMQswCQYD
VQQGEwJHQjEkMCIGA1UEChMbQ2VydGlmaWNhdGUgVHJhbnNwYXJlbmN5IENBMQ4w
DAYDVQQIEwVXYWxlczEQMA4GA1UEBxMHRXJ3IFdlboIBADAJBgNVHRMEAjAAMFoG
AyoDAQRTAAAAAFiLYDcEAwBHMEUCIFgijjEdj9f2tLg4xzCZk4L1wtaJC+kUo4x2
2gadBShqAiEAxq5XYO+u4P/KN2KIDXNl2U0KI4jRk3axqbCBArqLIvMwDQYJKoZI
hvcNAQEFBQADgYEABVbatsMFTF79jVOKRB/ZQTSDDkrXV1pA744t8riQMQo+RHQ+
cU8oc33G4RoMXw0aPbCjW5BfqKBQ8B+H09HLZzofaeoAQDy3VwpnSLoj4eODcgP4
q4yLKLteqnmcYChIYKXDofidZkwD92VG9/qbG70vSahBiLNe4UYtUfhUYV8=
-----END CERTIFICATE-----
