Certificate:
    Data:
        Version: 3 (0x2)
        Serial Number: 6 (0x6)
        Signature Algorithm: sha1WithRSAEncryption
        Issuer: C=GB, O=Certificate Transparency CA, ST=Wales, L=Erw Wen
        Validity
            Not Before: Jun  1 00:00:00 2012 GMT
            Not After : Jun  1 00:00:00 2022 GMT
        Subject: C=GB, O=Certificate Transparency, ST=Wales, L=Erw Wen
        Subject Public Key Info:
            Public Key Algorithm: rsaEncryption
            RSA Public Key: (1024 bit)
                Modulus (1024 bit):
                    00:bd:fb:bd:6a:f3:7d:55:26:f7:0c:5c:e4:04:98:
                    c3:56:61:c1:70:a9:e8:e3:d0:7d:8a:d0:29:ca:e1:
                    42:de:10:bc:a7:a5:f1:a7:ff:af:e5:5e:83:64:23:
                    2a:8a:f5:c1:d9:30:99:be:c0:00:7a:95:a5:ea:d5:
                    30:68:be:df:4a:91:40:1e:26:41:a7:99:db:6a:ac:
                    21:9c:d7:6c:c6:f9:32:51:c9:06:19:14:af:4b:cc:
                    85:1d:8a:13:6a:d3:fc:6d:70:42:e8:40:84:03:d8:
                    fb:c6:2f:46:13:b4:d4:61:17:06:fc:9a:4a:cc:46:
                    7f:22:f3:6d:30:fa:bc:e2:25
                Exponent: 65537 (0x10001)
        X509v3 extensions:
            X509v3 Subject Key Identifier: 
                36:FB:23:AB:80:44:CB:33:4F:53:FA:B4:AD:BB:CD:E1:3B:19:E1:EE
            X509v3 Authority Key Identifier: 
                keyid:6F:D4:9B:2C:46:DD:97:71:FF:E4:3A:A6:09:44:6C:9B:19:62:7D:F8
                DirName:/C=GB/O=Certificate Transparency CA/ST=Wales/L=Erw Wen
                serial:00

            X509v3 Basic Constraints: 
                CA:FALSE
            1.3.6.1.4.1.11129.2.4.2: 
                .S...:s......G0E.!...........CH..P.......;..I.S..q.. 8..........-...d.CD...y........g
    Signature Algorithm: sha1WithRSAEncryption
        93:9b:1c:8e:39:6d:ce:91:1f:97:de:65:bf:f1:b3:b2:b2:7a:
        1a:e0:f8:4b:0f:da:5d:72:27:8d:a3:e5:d0:88:b5:96:63:aa:
        ab:79:52:c0:7d:5f:7d:d6:0b:13:46:3d:a4:e7:1d:44:27:a0:
        4f:21:b7:8c:8d:23:b4:cb:a1:92:ea:40:38:3b:ec:9c:8c:fc:
        7a:fc:26:bd:ad:aa:2c:cf:ad:40:6c:69:cd:9c:9d:77:08:c3:
        a8:d4:b0:7e:28:a6:bd:1a:af:84:8f:99:99:5a:88:ef:d5:fe:
        72:af:99:f3:d7:94:24:7d:c0:19:ea:3a:96:d6:b5:12:39:6d:
        c5:03
-----BEGIN CERTIFICATE-----
MIIDMTCCApqgAwIBAgIBBjANBgkqhkiG9w0BAQUFADBVMQswCQYDVQQGEwJHQjEk
MCIGA1UEChMbQ2VydGlmaWNhdGUgVHJhbnNwYXJlbmN5IENBMQ4wDAYDVQQIEwVX
YWxlczEQMA4GA1UEBxMHRXJ3IFdlbjAeFw0xMjA2MDEwMDAwMDBaFw0yMjA2MDEw
MDAwMDBaMFIxCzAJBgNVBAYTAkdCMSEwHwYDVQQKExhDZXJ0aWZpY2F0ZSBUcmFu
c3BhcmVuY3kxDjAMBgNVBAgTBVdhbGVzMRAwDgYDVQQHEwdFcncgV2VuMIGfMA0G
CSqGSIb3DQEBAQUAA4GNADCBiQKBgQC9+71q831VJvcMXOQEmMNWYcFwqejj0H2K
0CnK4ULeELynpfGn/6/lXoNkIyqK9cHZMJm+wAB6laXq1TBovt9KkUAeJkGnmdtq
rCGc12zG+TJRyQYZFK9LzIUdihNq0/xtcELoQIQD2PvGL0YTtNRhFwb8mkrMRn8i
820w+rziJQIDAQABo4IBEjCCAQ4wHQYDVR0OBBYEFDb7I6uARMszT1P6tK27zeE7
GeHuMH0GA1UdIwR2MHSAFG/UmyxG3Zdx/+Q6pglEbJsZYn34oVmkVzBVMQswCQYD
VQQGEwJHQjEkMCIGA1UEChMbQ2VydGlmaWNhdGUgVHJhbnNwYXJlbmN5IENBMQ4w
DAYDVQQIEwVXYWxlczEQMA4GA1UEBxMHRXJ3IFdlboIBADAJBgNVHRMEAjAAMGMG
CisGAQQB1nkCBAIEVQRTAAABOnPnyA4EAwBHMEUCIQDutaQUo6/Vw9iPQ0jMvlAT
+/fhEv63O5m+SYJTFYNxBQIgOJHshYsBwB4ThowtFQnrZN1DRJPsjXnE6a/azRbS
hmcwDQYJKoZIhvcNAQEFBQADgYEAk5scjjltzpEfl95lv/GzsrJ6GuD4Sw/aXXIn
jaPl0Ii1lmOqq3lSwH1ffdYLE0Y9pOcdRCegTyG3jI0jtMuhkupAODvsnIz8evwm
va2qLM+tQGxpzZyddwjDqNSwfiimvRqvhI+ZmVqI79X+cq+Z89eUJH3AGeo6lta1
EjltxQM=
-----END CERTIFICATE-----
