Certificate:
    Data:
        Version: 3 (0x2)
        Serial Number: 7 (0x7)
        Signature Algorithm: sha1WithRSAEncryption
        Issuer: C=GB, O=Certificate Transparency CA, ST=Wales, L=Erw Wen
        Validity
            Not Before: Jun  1 00:00:00 2012 GMT
            Not After : Jun  1 00:00:00 2022 GMT
        Subject: C=GB, O=Certificate Transparency Intermediate CA, ST=Wales, L=Erw Wen
        Subject Public Key Info:
            Public Key Algorithm: rsaEncryption
            RSA Public Key: (1024 bit)
                Modulus (1024 bit):
                    00:e0:43:92:f8:d9:26:a7:97:a7:22:2c:54:53:b6:
                    b6:55:c5:a1:7f:69:e7:ef:e7:8d:95:32:b9:57:4b:
                    f1:bd:59:7f:15:12:91:50:44:ee:fa:96:d5:8f:c7:
                    6e:70:2a:db:7f:82:b4:c6:73:73:62:34:bc:18:3d:
                    53:fc:1d:b5:19:63:ee:70:8e:c8:96:4c:a9:ef:ba:
                    e7:de:25:b1:a2:f4:56:8b:0a:11:92:65:87:68:8a:
                    77:85:85:2e:f8:dc:ef:ed:98:d5:4f:3b:0f:89:d2:
                    00:1e:b0:ac:71:04:1d:91:08:7b:a1:ba:82:2d:2b:
                    79:67:7d:e3:42:04:d2:25:29
                Exponent: 65537 (0x10001)
        X509v3 extensions:
            X509v3 Subject Key Identifier: 
                BA:77:60:93:04:D7:2E:17:A6:3F:66:C6:28:63:49:60:AF:D5:82:30
            X509v3 Authority Key Identifier: 
                keyid:B3:F6:3C:85:31:9B:1B:E4:1D:CD:FA:15:FF:18:13:84:DC:6E:18:EF
                DirName:/C=GB/O=Certificate Transparency CA/ST=Wales/L=Erw Wen
                serial:00

            X509v3 Basic Constraints: 
                CA:TRUE
    Signature Algorithm: sha1WithRSAEncryption
        48:a6:35:92:5c:7b:61:72:af:a1:dc:7f:7b:5e:6d:79:34:4a:
        a1:4d:47:ff:4d:fa:b8:55:b2:18:31:3a:c6:ae:7f:86:49:db:
        32:98:be:14:a0:f0:18:1a:de:df:38:bb:4e:47:2a:8f:a2:1f:
        79:af:99:d7:8e:a9:07:2e:cc:56:46:13:e9:f0:39:c2:a2:4c:
        88:59:ea:51:b8:44:b9:d1:71:9f:08:cd:f5:e0:8a:0b:ac:f5:
        12:ae:63:fd:15:20:10:99:39:a9:a1:97:bd:f0:43:25:8b:31:
        d4:d1:ae:b6:f2:06:75:58:9c:41:1c:3e:a2:27:74:d5:94:e8:
        83:da
-----BEGIN CERTIFICATE-----
MIIC3TCCAkagAwIBAgIBBzANBgkqhkiG9w0BAQUFADBVMQswCQYDVQQGEwJHQjEk
MCIGA1UEChMbQ2VydGlmaWNhdGUgVHJhbnNwYXJlbmN5IENBMQ4wDAYDVQQIEwVX
YWxlczEQMA4GA1UEBxMHRXJ3IFdlbjAeFw0xMjA2MDEwMDAwMDBaFw0yMjA2MDEw
MDAwMDBaMGIxCzAJBgNVBAYTAkdCMTEwLwYDVQQKEyhDZXJ0aWZpY2F0ZSBUcmFu
c3BhcmVuY3kgSW50ZXJtZWRpYXRlIENBMQ4wDAYDVQQIEwVXYWxlczEQMA4GA1UE
BxMHRXJ3IFdlbjCBnzANBgkqhkiG9w0BAQEFAAOBjQAwgYkCgYEA4EOS+Nkmp5en
IixUU7a2VcWhf2nn7+eNlTK5V0vxvVl/FRKRUETu+pbVj8ducCrbf4K0xnNzYjS8
GD1T/B21GWPucI7Ilkyp77rn3iWxovRWiwoRkmWHaIp3hYUu+Nzv7ZjVTzsPidIA
HrCscQQdkQh7obqCLSt5Z33jQgTSJSkCAwEAAaOBrzCBrDAdBgNVHQ4EFgQUundg
kwTXLhemP2bGKGNJYK/VgjAwfQYDVR0jBHYwdIAUs/Y8hTGbG+QdzfoV/xgThNxu
GO+hWaRXMFUxCzAJBgNVBAYTAkdCMSQwIgYDVQQKExtDZXJ0aWZpY2F0ZSBUcmFu
c3BhcmVuY3kgQ0ExDjAMBgNVBAgTBVdhbGVzMRAwDgYDVQQHEwdFcncgV2VuggEA
MAwGA1UdEwQFMAMBAf8wDQYJKoZIhvcNAQEFBQADgYEASKY1klx7YXKvodx/e15t
eTRKoU1H/036uFWyGDE6xq5/hknbMpi+FKDwGBre3zi7Tkcqj6Ifea+Z146pBy7M
VkYT6fA5wqJMiFnqUbhEudFxnwjN9eCKC6z1Eq5j/RUgEJk5qaGXvfBDJYsx1NGu
tvIGdVicQRw+oid01ZTog9o=
-----END CERTIFICATE-----
-----BEGIN CERTIFICATE-----
MIIBJDCCARigAwIBAgIRAKBhOFCelhpF+J33SwDj/QwwCwYJKoZIhvcNAQEFMA8x
DTALBgNVBAMTBFRlc3QwHhcNMTIxMDI1MTA1OTE3WhcNMTIxMDI1MTA1OTE4WjAP
MQ0wCwYDVQQDEwR0c2VUMBowDQYJKoZIhvcNAQEBBQADCQAwBgIBAwIBA6OBkjCB
jzCBjAYKKwYBBAHWeQIEAQEB/wR7BHkAdwB1AK1QmW4BbQKIYp99cmmP03vcTR8a
4VKxwMBNhHxDl28oAAABOpeTgSUAAAQDAEYwRAIgI/oDKL+EM7f8jYk6NiegRrBq
bwecfyy6Ma0Wk1d509cCIA88vbSjSfFxTMgGqzxNZXIA+PhBXRP6nMgHNnEYHnxI
MAMGAQADAQA=
-----END CERTIFICATE-----
