Certificate:
    Data:
        Version: 3 (0x2)
        Serial Number: 4 (0x4)
        Signature Algorithm: sha1WithRSAEncryption
        Issuer: C=GB, O=Certificate Transparency CA, ST=Wales, L=Erw Wen
        Validity
            Not Before: Jun  1 00:00:00 2012 GMT
            Not After : Jun  1 00:00:00 2022 GMT
        Subject: C=GB, O=Certificate Transparency Intermediate CA, ST=Wales, L=Erw Wen
        Subject Public Key Info:
            Public Key Algorithm: rsaEncryption
            RSA Public Key: (1024 bit)
                Modulus (1024 bit):
                    00:ef:63:16:62:42:38:0b:5b:03:bf:3d:eb:15:f4:
                    d1:33:ba:a2:49:20:aa:c8:e6:02:ad:e0:d1:39:c7:
                    d8:8b:39:3a:71:53:9a:0e:d4:ae:71:5f:6b:59:2b:
                    12:14:fd:28:e9:31:17:a3:c5:2a:4b:83:45:23:58:
                    04:bc:2d:c5:7b:35:4b:6d:1d:c3:e0:f0:37:37:d6:
                    da:08:cb:af:7f:e7:38:de:fa:8e:64:ef:fa:6f:60:
                    5a:a3:e1:5d:f4:37:a9:0f:d5:4f:85:0c:09:42:08:
                    f0:55:a0:43:71:e6:0e:50:cc:2c:a2:94:03:fc:e7:
                    68:1c:b5:c7:77:e3:8f:29:43
                Exponent: 65537 (0x10001)
        X509v3 extensions:
            X509v3 Subject Key Identifier: 
                DF:25:25:BA:DE:C5:74:E2:F1:BF:21:DC:BB:38:89:E2:18:A3:40:E8
            X509v3 Authority Key Identifier: 
                keyid:A3:B8:D8:9B:A2:69:0D:FB:48:BB:BF:87:C1:03:9D:DC:E5:62:56:C6
                DirName:/C=GB/O=Certificate Transparency CA/ST=Wales/L=Erw Wen
                serial:00

            X509v3 Basic Constraints: 
                CA:TRUE
    Signature Algorithm: sha1WithRSAEncryption
        51:4c:3d:40:38:e1:52:ef:8d:1b:20:2b:c7:e0:27:0c:52:7a:
        ab:3e:6b:35:d3:6c:ae:5d:92:d1:c2:cc:dd:fa:21:77:c2:91:
        50:f4:36:35:bb:b3:0e:f2:8c:9f:1e:cc:6e:b6:27:9d:64:78:
        8a:93:75:7e:19:5e:83:76:cc:b3:df:d2:5d:3f:a2:30:d4:68:
        45:f2:7e:50:92:de:96:0d:f9:ef:13:de:c5:8c:ce:05:95:29:
        49:84:13:80:32:bb:b1:f2:31:b7:c1:ca:66:76:df:9a:e6:f8:
        79:a4:d2:7f:31:3f:a4:fe:29:7f:5e:97:b3:7e:ed:0a:31:63:
        53:92
-----BEGIN CERTIFICATE-----
MIIC3TCCAkagAwIBAgIBBDANBgkqhkiG9w0BAQUFADBVMQswCQYDVQQGEwJHQjEk
MCIGA1UEChMbQ2VydGlmaWNhdGUgVHJhbnNwYXJlbmN5IENBMQ4wDAYDVQQIEwVX
YWxlczEQMA4GA1UEBxMHRXJ3IFdlbjAeFw0xMjA2MDEwMDAwMDBaFw0yMjA2MDEw
MDAwMDBaMGIxCzAJBgNVBAYTAkdCMTEwLwYDVQQKEyhDZXJ0aWZpY2F0ZSBUcmFu
c3BhcmVuY3kgSW50ZXJtZWRpYXRlIENBMQ4wDAYDVQQIEwVXYWxlczEQMA4GA1UE
BxMHRXJ3IFdlbjCBnzANBgkqhkiG9w0BAQEFAAOBjQAwgYkCgYEA72MWYkI4C1sD
vz3rFfTRM7qiSSCqyOYCreDROcfYizk6cVOaDtSucV9rWSsSFP0o6TEXo8UqS4NF
I1gEvC3FezVLbR3D4PA3N9baCMuvf+c43vqOZO/6b2Bao+Fd9DepD9VPhQwJQgjw
VaBDceYOUMwsopQD/OdoHLXHd+OPKUMCAwEAAaOBrzCBrDAdBgNVHQ4EFgQU3yUl
ut7FdOLxvyHcuziJ4hijQOgwfQYDVR0jBHYwdIAUo7jYm6JpDftIu7+HwQOd3OVi
VsahWaRXMFUxCzAJBgNVBAYTAkdCMSQwIgYDVQQKExtDZXJ0aWZpY2F0ZSBUcmFu
c3BhcmVuY3kgQ0ExDjAMBgNVBAgTBVdhbGVzMRAwDgYDVQQHEwdFcncgV2VuggEA
MAwGA1UdEwQFMAMBAf8wDQYJKoZIhvcNAQEFBQADgYEAUUw9QDjhUu+NGyArx+An
DFJ6qz5rNdNsrl2S0cLM3fohd8KRUPQ2NbuzDvKMnx7MbrYnnWR4ipN1fhleg3bM
s9/SXT+iMNRoRfJ+UJLelg357xPexYzOBZUpSYQTgDK7sfIxt8HKZnbfmub4eaTS
fzE/pP4pf16Xs37tCjFjU5I=
-----END CERTIFICATE-----
-----BEGIN CERTIFICATE-----
MIHxMIHmoAMCAQICEQDmWjZo/qZZ8F1gmPbkwaf+MAsGCSqGSIb3DQEBBTAPMQ0w
CwYDVQQDEwRUZXN0MB4XDTEyMDgyNDEyMTEzMloXDTEyMDgyNDEyMTEzM1owDzEN
MAsGA1UEAxMEdHNlVDAaMA0GCSqGSIb3DQEBAQUAAwkAMAYCAQMCAQOjYTBfMF0G
AyoDAAEB/wRTAAAAAFiLYCwEAwBHMEUCIF5a912llujpfxTC9lYEgajPxbZhLNWh
dWJZ8KaQm0XyAiEAkQNky048fiOaa+zRxKxcWPH78i+r616Y6xZ35q0I4o4wAwYB
AAMBAA==
-----END CERTIFICATE-----
