Certificate:
    Data:
        Version: 3 (0x2)
        Serial Number: 7 (0x7)
        Signature Algorithm: sha1WithRSAEncryption
        Issuer: C=GB, O=Certificate Transparency CA, ST=Wales, L=Erw Wen
        Validity
            Not Before: Jun  1 00:00:00 2012 GMT
            Not After : Jun  1 00:00:00 2022 GMT
        Subject: C=GB, O=Certificate Transparency, ST=Wales, L=Erw Wen
        Subject Public Key Info:
            Public Key Algorithm: rsaEncryption
            RSA Public Key: (1024 bit)
                Modulus (1024 bit):
                    00:cb:fb:4d:9f:4a:e4:3d:7e:d8:64:cc:d7:ad:47:
                    7b:0c:9c:83:70:95:72:16:54:a7:3b:e6:2c:55:68:
                    5f:5d:41:ee:07:ef:e6:ef:6c:f9:5d:15:22:b3:19:
                    e9:43:30:ea:0b:b9:ff:56:c4:e8:d5:4c:e0:e5:8b:
                    af:e8:bb:bb:3c:bc:18:1b:69:8e:c9:8d:d0:96:92:
                    1d:73:24:cb:2d:57:f1:df:c2:c1:a4:67:02:c5:ba:
                    76:b1:41:f1:06:bc:56:83:ac:5f:6b:ae:98:0f:25:
                    b8:1d:4d:9e:26:08:ae:98:a2:31:8f:d7:36:d7:a3:
                    fa:cb:5e:39:89:c5:bb:01:01
                Exponent: 65537 (0x10001)
        X509v3 extensions:
            X509v3 Subject Key Identifier: 
                44:64:12:7B:92:B4:F8:53:24:D6:25:A5:B3:98:FA:0E:A2:A8:AA:14
            X509v3 Authority Key Identifier: 
                keyid:D6:DD:1D:FD:55:90:F8:14:A3:B2:19:C4:1B:2C:D7:AA:43:A6:DA:6B
                DirName:/C=GB/O=Certificate Transparency CA/ST=Wales/L=Erw Wen
                serial:00

            X509v3 Basic Constraints: 
                CA:FALSE
            1.2.3.1: 
                .
    Signature Algorithm: sha1WithRSAEncryption
        61:04:a1:2f:25:56:2b:e2:8e:6a:c0:f3:42:3d:f7:db:97:4f:
        c2:da:ae:a6:d9:aa:76:b3:78:39:39:d5:64:c0:f7:f5:6a:b8:
        a6:5e:9a:d0:a3:f0:99:86:0e:b3:86:dc:7c:01:a6:72:93:77:
        cf:05:52:7e:19:60:b2:c3:df:76:aa:f2:3c:63:ce:2a:d4:27:
        bb:ef:ae:ac:f3:73:34:7c:4e:58:65:f5:a3:7e:a0:65:fc:f5:
        a3:9d:11:91:c7:5d:10:73:69:6f:5e:44:6d:b8:f1:c8:56:e7:
        43:4a:64:24:b6:e9:4c:ac:e2:35:24:71:68:8a:2b:b2:3a:5b:
        a2:a3
-----BEGIN CERTIFICATE-----
MIIC1DCCAj2gAwIBAgIBBzANBgkqhkiG9w0BAQUFADBVMQswCQYDVQQGEwJHQjEk
MCIGA1UEChMbQ2VydGlmaWNhdGUgVHJhbnNwYXJlbmN5IENBMQ4wDAYDVQQIEwVX
YWxlczEQMA4GA1UEBxMHRXJ3IFdlbjAeFw0xMjA2MDEwMDAwMDBaFw0yMjA2MDEw
MDAwMDBaMFIxCzAJBgNVBAYTAkdCMSEwHwYDVQQKExhDZXJ0aWZpY2F0ZSBUcmFu
c3BhcmVuY3kxDjAMBgNVBAgTBVdhbGVzMRAwDgYDVQQHEwdFcncgV2VuMIGfMA0G
CSqGSIb3DQEBAQUAA4GNADCBiQKBgQDL+02fSuQ9fthkzNetR3sMnINwlXIWVKc7
5ixVaF9dQe4H7+bvbPldFSKzGelDMOoLuf9WxOjVTODli6/ou7s8vBgbaY7JjdCW
kh1zJMstV/HfwsGkZwLFunaxQfEGvFaDrF9rrpgPJbgdTZ4mCK6YojGP1zbXo/rL
XjmJxbsBAQIDAQABo4G2MIGzMB0GA1UdDgQWBBREZBJ7krT4UyTWJaWzmPoOoqiq
FDB9BgNVHSMEdjB0gBTW3R39VZD4FKOyGcQbLNeqQ6baa6FZpFcwVTELMAkGA1UE
BhMCR0IxJDAiBgNVBAoTG0NlcnRpZmljYXRlIFRyYW5zcGFyZW5jeSBDQTEOMAwG
A1UECBMFV2FsZXMxEDAOBgNVBAcTB0VydyBXZW6CAQAwCQYDVR0TBAIwADAIBgMq
AwEEAQAwDQYJKoZIhvcNAQEFBQADgYEAYQShLyVWK+KOasDzQj3325dPwtquptmq
drN4OTnVZMD39Wq4pl6a0KPwmYYOs4bcfAGmcpN3zwVSfhlgssPfdqryPGPOKtQn
u++urPNzNHxOWGX1o36gZfz1o50RkcddEHNpb15EbbjxyFbnQ0pkJLbpTKziNSRx
aIorsjpboqM=
-----END CERTIFICATE-----
