Certificate:
    Data:
        Version: 3 (0x2)
        Serial Number: 6 (0x6)
        Signature Algorithm: sha1WithRSAEncryption
        Issuer: C=GB, O=Certificate Transparency CA, ST=Wales, L=Erw Wen
        Validity
            Not Before: Jun  1 00:00:00 2012 GMT
            Not After : Jun  1 00:00:00 2022 GMT
        Subject: C=GB, O=Certificate Transparency, ST=Wales, L=Erw Wen
        Subject Public Key Info:
            Public Key Algorithm: rsaEncryption
            RSA Public Key: (1024 bit)
                Modulus (1024 bit):
                    00:c6:86:34:89:92:f7:4b:2a:c9:34:7e:ba:e1:f6:
                    80:ed:b4:dc:02:57:91:3b:0a:f7:13:b9:ae:3b:94:
                    50:02:d5:49:bc:0d:74:0e:95:1f:31:bd:eb:7c:0f:
                    6c:66:99:03:90:77:90:89:97:9a:96:fa:73:ff:b8:
                    0d:0b:55:62:ca:08:60:0e:c7:c8:ad:ef:91:c8:19:
                    5a:69:4f:9d:37:f0:c0:b7:b7:98:28:99:7d:87:86:
                    4e:c7:df:ca:cf:01:cc:c3:22:c5:77:8b:58:ac:cf:
                    b0:79:0a:22:e1:64:92:e4:71:31:48:3d:b9:55:e3:
                    18:67:25:4c:be:65:32:84:b7
                Exponent: 65537 (0x10001)
        X509v3 extensions:
            X509v3 Subject Key Identifier: 
                38:39:46:38:D9:DD:32:9E:59:74:08:F8:BD:C8:E3:00:85:A9:63:8A
            X509v3 Authority Key Identifier: 
                keyid:B3:F6:3C:85:31:9B:1B:E4:1D:CD:FA:15:FF:18:13:84:DC:6E:18:EF
                DirName:/C=GB/O=Certificate Transparency CA/ST=Wales/L=Erw Wen
                serial:00

            X509v3 Basic Constraints: 
                CA:FALSE
            1.3.6.1.4.1.11129.2.4.2: 
                .z.x.v..P.n.m..b.}ri..{.M...R...M.|C.o(...:...4.....G0E. G...K.N._.Z.2...NFi..+.eC......s.!..AY)....nK..B.>.......F...i..a.D
    Signature Algorithm: sha1WithRSAEncryption
        25:0d:d0:1e:57:0a:39:0e:ce:6f:07:a2:ad:9b:01:a6:e2:d3:
        bf:30:18:27:57:14:ac:71:24:7d:bb:83:f0:3d:b1:75:a6:90:
        f7:d7:a8:28:4a:55:5a:3b:73:2c:2b:10:2b:c3:1e:a3:3d:05:
        66:ba:f6:8f:57:1a:8f:eb:72:cf:86:2f:a8:28:25:d4:25:49:
        37:6f:c3:33:19:a0:e6:ba:5d:6e:ec:f0:23:b2:e0:0b:0f:8a:
        26:9a:f0:a0:b7:7f:11:16:6b:a4:f5:d0:da:65:b8:fd:83:26:
        7d:59:1a:6b:b8:c2:00:60:01:6e:1b:06:9f:64:13:7b:93:8b:
        42:2b
-----BEGIN CERTIFICATE-----
MIIDWTCCAsKgAwIBAgIBBjANBgkqhkiG9w0BAQUFADBVMQswCQYDVQQGEwJHQjEk
MCIGA1UEChMbQ2VydGlmaWNhdGUgVHJhbnNwYXJlbmN5IENBMQ4wDAYDVQQIEwVX
YWxlczEQMA4GA1UEBxMHRXJ3IFdlbjAeFw0xMjA2MDEwMDAwMDBaFw0yMjA2MDEw
MDAwMDBaMFIxCzAJBgNVBAYTAkdCMSEwHwYDVQQKExhDZXJ0aWZpY2F0ZSBUcmFu
c3BhcmVuY3kxDjAMBgNVBAgTBVdhbGVzMRAwDgYDVQQHEwdFcncgV2VuMIGfMA0G
CSqGSIb3DQEBAQUAA4GNADCBiQKBgQDGhjSJkvdLKsk0frrh9oDttNwCV5E7CvcT
ua47lFAC1Um8DXQOlR8xvet8D2xmmQOQd5CJl5qW+nP/uA0LVWLKCGAOx8it75HI
GVppT5038MC3t5gomX2Hhk7H38rPAczDIsV3i1isz7B5CiLhZJLkcTFIPblV4xhn
JUy+ZTKEtwIDAQABo4IBOjCCATYwHQYDVR0OBBYEFDg5RjjZ3TKeWXQI+L3I4wCF
qWOKMH0GA1UdIwR2MHSAFLP2PIUxmxvkHc36Ff8YE4TcbhjvoVmkVzBVMQswCQYD
VQQGEwJHQjEkMCIGA1UEChMbQ2VydGlmaWNhdGUgVHJhbnNwYXJlbmN5IENBMQ4w
DAYDVQQIEwVXYWxlczEQMA4GA1UEBxMHRXJ3IFdlboIBADAJBgNVHRMEAjAAMIGK
BgorBgEEAdZ5AgQCBHwEegB4AHYArVCZbgFtAohin31yaY/Te9xNHxrhUrHAwE2E
fEOXbygAAAE6l5OBNAAABAMARzBFAiBH8cjlSwZOhF8MWtgyzH8YTkZpi8Ar62VD
798IiQIOcwIhAPtBWSkAod6KbksbAkLIPq8GtAIOrwNGuQ7JaRHHYexEMA0GCSqG
SIb3DQEBBQUAA4GBACUN0B5XCjkOzm8Hoq2bAabi078wGCdXFKxxJH27g/A9sXWm
kPfXqChKVVo7cywrECvDHqM9BWa69o9XGo/rcs+GL6goJdQlSTdvwzMZoOa6XW7s
8COy4AsPiiaa8KC3fxEWa6T10NpluP2DJn1ZGmu4wgBgAW4bBp9kE3uTi0Ir
-----END CERTIFICATE-----
