Certificate:
    Data:
        Version: 3 (0x2)
        Serial Number: 2 (0x2)
        Signature Algorithm: sha1WithRSAEncryption
        Issuer: C=GB, O=Certificate Transparency Intermediate PreCA, ST=Wales, L=Erw Wen
        Validity
            Not Before: Jun  1 00:00:00 2012 GMT
            Not After : Jun  1 00:00:00 2022 GMT
        Subject: C=GB, O=Certificate Transparency, ST=Wales, L=Erw Wen
        Subject Public Key Info:
            Public Key Algorithm: rsaEncryption
            RSA Public Key: (1024 bit)
                Modulus (1024 bit):
                    00:d9:94:30:d4:d8:82:f3:95:1b:b7:4c:29:51:a8:
                    8f:98:1e:a0:01:76:23:e7:5c:60:ae:fd:5e:c2:3d:
                    52:8b:1a:fa:8f:ba:44:53:d8:e4:d5:96:1f:97:f6:
                    cb:40:4b:a7:ef:bd:b2:92:8f:d3:c5:e9:b5:8c:0d:
                    a5:71:86:d6:90:d3:56:07:3b:79:38:4e:f8:db:f0:
                    ac:54:70:e1:ed:f5:62:25:fb:2f:d6:39:49:62:fc:
                    dd:20:69:f0:5d:8d:6c:32:4c:55:92:11:8a:bd:6f:
                    07:22:1e:55:38:c4:18:0a:9f:87:47:25:03:bb:9e:
                    d7:df:07:a2:5a:e0:f8:cf:6f
                Exponent: 65537 (0x10001)
        X509v3 extensions:
            X509v3 Subject Key Identifier: 
                E5:EF:29:EB:77:DC:BE:89:88:35:DA:28:87:1E:1C:8A:77:58:76:49
            X509v3 Authority Key Identifier: 
                keyid:01:EA:80:FE:C0:72:E1:70:7E:97:DC:94:A2:99:FF:75:C1:E1:43:B8
                DirName:/C=GB/O=Certificate Transparency Intermediate CA/ST=Wales/L=Erw Wen
                serial:00

            X509v3 Basic Constraints: 
                CA:FALSE
            1.3.6.1.4.1.11129.2.4.3: critical
                ..
    Signature Algorithm: sha1WithRSAEncryption
        76:6a:7a:ab:c6:c6:cd:67:a1:b4:f7:2a:9c:c2:51:a1:06:6b:
        2d:06:ce:fe:2a:62:5c:c9:ce:d2:26:21:21:2b:0e:ad:26:5a:
        ca:44:5d:7b:ae:04:8c:ae:ce:29:78:57:d2:5b:df:e0:e5:12:
        fd:ea:32:f1:05:23:c4:33:1c:32:4a:95:01:57:f1:ff:7e:5d:
        66:a8:07:a3:92:6e:d7:03:7b:11:85:34:d9:4e:17:5f:a5:08:
        89:fe:d5:d4:dd:f4:f3:42:9e:1d:a2:ed:5a:c3:83:c8:5e:4b:
        a9:97:b8:e1:10:21:33:f7:dd:29:42:11:e2:ed:0b:8f:de:80:
        30:4f
-----BEGIN CERTIFICATE-----
MIIC/zCCAmigAwIBAgIBAjANBgkqhkiG9w0BAQUFADBlMQswCQYDVQQGEwJHQjE0
MDIGA1UEChMrQ2VydGlmaWNhdGUgVHJhbnNwYXJlbmN5IEludGVybWVkaWF0ZSBQ
cmVDQTEOMAwGA1UECBMFV2FsZXMxEDAOBgNVBAcTB0VydyBXZW4wHhcNMTIwNjAx
MDAwMDAwWhcNMjIwNjAxMDAwMDAwWjBSMQswCQYDVQQGEwJHQjEhMB8GA1UEChMY
Q2VydGlmaWNhdGUgVHJhbnNwYXJlbmN5MQ4wDAYDVQQIEwVXYWxlczEQMA4GA1UE
BxMHRXJ3IFdlbjCBnzANBgkqhkiG9w0BAQEFAAOBjQAwgYkCgYEA2ZQw1NiC85Ub
t0wpUaiPmB6gAXYj51xgrv1ewj1Sixr6j7pEU9jk1ZYfl/bLQEun772yko/Txem1
jA2lcYbWkNNWBzt5OE742/CsVHDh7fViJfsv1jlJYvzdIGnwXY1sMkxVkhGKvW8H
Ih5VOMQYCp+HRyUDu57X3weiWuD4z28CAwEAAaOB0TCBzjAdBgNVHQ4EFgQU5e8p
63fcvomINdoohx4cindYdkkwgYwGA1UdIwSBhDCBgYAUAeqA/sBy4XB+l9yUopn/
dcHhQ7ihZqRkMGIxCzAJBgNVBAYTAkdCMTEwLwYDVQQKEyhDZXJ0aWZpY2F0ZSBU
cmFuc3BhcmVuY3kgSW50ZXJtZWRpYXRlIENBMQ4wDAYDVQQIEwVXYWxlczEQMA4G
A1UEBxMHRXJ3IFdlboIBADAJBgNVHRMEAjAAMBMGCisGAQQB1nkCBAMBAf8EAgUA
MA0GCSqGSIb3DQEBBQUAA4GBAHZqeqvGxs1nobT3KpzCUaEGay0Gzv4qYlzJztIm
ISErDq0mWspEXXuuBIyuzil4V9Jb3+DlEv3qMvEFI8QzHDJKlQFX8f9+XWaoB6OS
btcDexGFNNlOF1+lCIn+1dTd9PNCnh2i7VrDg8heS6mXuOEQITP33SlCEeLtC4/e
gDBP
-----END CERTIFICATE-----
