Certificate:
    Data:
        Version: 3 (0x2)
        Serial Number: 5 (0x5)
        Signature Algorithm: sha1WithRSAEncryption
        Issuer: C=GB, O=Certificate Transparency CA, ST=Wales, L=Erw Wen
        Validity
            Not Before: Jun  1 00:00:00 2012 GMT
            Not After : Jun  1 00:00:00 2022 GMT
        Subject: C=GB, O=Certificate Transparency, ST=Wales, L=Erw Wen
        Subject Public Key Info:
            Public Key Algorithm: rsaEncryption
            RSA Public Key: (1024 bit)
                Modulus (1024 bit):
                    00:bd:fb:bd:6a:f3:7d:55:26:f7:0c:5c:e4:04:98:
                    c3:56:61:c1:70:a9:e8:e3:d0:7d:8a:d0:29:ca:e1:
                    42:de:10:bc:a7:a5:f1:a7:ff:af:e5:5e:83:64:23:
                    2a:8a:f5:c1:d9:30:99:be:c0:00:7a:95:a5:ea:d5:
                    30:68:be:df:4a:91:40:1e:26:41:a7:99:db:6a:ac:
                    21:9c:d7:6c:c6:f9:32:51:c9:06:19:14:af:4b:cc:
                    85:1d:8a:13:6a:d3:fc:6d:70:42:e8:40:84:03:d8:
                    fb:c6:2f:46:13:b4:d4:61:17:06:fc:9a:4a:cc:46:
                    7f:22:f3:6d:30:fa:bc:e2:25
                Exponent: 65537 (0x10001)
        X509v3 extensions:
            X509v3 Subject Key Identifier: 
                36:FB:23:AB:80:44:CB:33:4F:53:FA:B4:AD:BB:CD:E1:3B:19:E1:EE
            X509v3 Authority Key Identifier: 
                keyid:6F:D4:9B:2C:46:DD:97:71:FF:E4:3A:A6:09:44:6C:9B:19:62:7D:F8
                DirName:/C=GB/O=Certificate Transparency CA/ST=Wales/L=Erw Wen
                serial:00

            X509v3 Basic Constraints: 
                CA:FALSE
    Signature Algorithm: sha1WithRSAEncryption
        12:5f:72:3e:b4:d9:d1:9a:6f:28:1b:1e:52:65:bb:cd:72:d6:
        f1:2a:a5:ab:56:8f:97:dc:ba:fe:58:84:26:3d:82:e7:d1:5a:
        b1:eb:8a:80:c6:69:11:60:53:6b:d6:86:44:67:48:76:06:db:
        62:fd:2a:1a:38:3f:14:71:31:20:3b:b0:82:79:ff:cc:9c:7b:
        c5:1d:45:08:68:72:59:79:42:57:d3:8b:de:ff:be:c0:90:ff:
        7b:6d:1c:28:f3:13:fc:eb:65:b5:b8:51:e1:77:2f:13:21:f0:
        2d:29:a6:f3:13:ba:5d:65:53:50:a8:03:86:82:90:12:42:1a:
        d9:09
-----BEGIN CERTIFICATE-----
MIICyjCCAjOgAwIBAgIBBTANBgkqhkiG9w0BAQUFADBVMQswCQYDVQQGEwJHQjEk
MCIGA1UEChMbQ2VydGlmaWNhdGUgVHJhbnNwYXJlbmN5IENBMQ4wDAYDVQQIEwVX
YWxlczEQMA4GA1UEBxMHRXJ3IFdlbjAeFw0xMjA2MDEwMDAwMDBaFw0yMjA2MDEw
MDAwMDBaMFIxCzAJBgNVBAYTAkdCMSEwHwYDVQQKExhDZXJ0aWZpY2F0ZSBUcmFu
c3BhcmVuY3kxDjAMBgNVBAgTBVdhbGVzMRAwDgYDVQQHEwdFcncgV2VuMIGfMA0G
CSqGSIb3DQEBAQUAA4GNADCBiQKBgQC9+71q831VJvcMXOQEmMNWYcFwqejj0H2K
0CnK4ULeELynpfGn/6/lXoNkIyqK9cHZMJm+wAB6laXq1TBovt9KkUAeJkGnmdtq
rCGc12zG+TJRyQYZFK9LzIUdihNq0/xtcELoQIQD2PvGL0YTtNRhFwb8mkrMRn8i
820w+rziJQIDAQABo4GsMIGpMB0GA1UdDgQWBBQ2+yOrgETLM09T+rStu83hOxnh
7jB9BgNVHSMEdjB0gBRv1JssRt2Xcf/kOqYJRGybGWJ9+KFZpFcwVTELMAkGA1UE
BhMCR0IxJDAiBgNVBAoTG0NlcnRpZmljYXRlIFRyYW5zcGFyZW5jeSBDQTEOMAwG
A1UECBMFV2FsZXMxEDAOBgNVBAcTB0VydyBXZW6CAQAwCQYDVR0TBAIwADANBgkq
hkiG9w0BAQUFAAOBgQASX3I+tNnRmm8oGx5SZbvNctbxKqWrVo+X3Lr+WIQmPYLn
0Vqx64qAxmkRYFNr1oZEZ0h2Btti/SoaOD8UcTEgO7CCef/MnHvFHUUIaHJZeUJX
04ve/77AkP97bRwo8xP862W1uFHhdy8TIfAtKabzE7pdZVNQqAOGgpASQhrZCQ==
-----END CERTIFICATE-----
