Certificate:
    Data:
        Version: 3 (0x2)
        Serial Number: 2 (0x2)
        Signature Algorithm: sha1WithRSAEncryption
        Issuer: C=GB, O=Certificate Transparency Intermediate CA, ST=Wales, L=Erw Wen
        Validity
            Not Before: Jun  1 00:00:00 2012 GMT
            Not After : Jun  1 00:00:00 2022 GMT
        Subject: C=GB, O=Certificate Transparency, ST=Wales, L=Erw Wen
        Subject Public Key Info:
            Public Key Algorithm: rsaEncryption
            RSA Public Key: (1024 bit)
                Modulus (1024 bit):
                    00:d3:2e:e6:2c:1a:1f:f9:24:6c:05:e0:3d:d7:e3:
                    5d:36:4e:2d:6d:b1:86:44:8c:ac:16:18:92:f6:84:
                    93:4d:b3:90:15:bc:23:7b:27:c2:df:dd:07:ec:37:
                    e5:b3:ba:d9:e8:f0:6c:70:63:5c:55:fe:c2:f7:18:
                    03:09:70:04:13:31:44:b9:db:c5:e6:40:96:85:d5:
                    50:56:e9:ba:d4:7a:9b:78:d6:d5:09:c0:8e:33:b7:
                    a3:1d:ba:07:92:9d:25:23:67:86:e0:a6:b5:5f:18:
                    ad:b8:bc:34:2c:34:56:2e:4e:c9:ce:c0:37:a4:b4:
                    91:27:3a:93:13:ab:27:37:c5
                Exponent: 65537 (0x10001)
        X509v3 extensions:
            X509v3 Subject Key Identifier: 
                25:1B:1B:9E:2A:9E:40:73:FB:1A:9E:06:27:A7:F2:09:EE:70:D7:61
            X509v3 Authority Key Identifier: 
                keyid:DF:25:25:BA:DE:C5:74:E2:F1:BF:21:DC:BB:38:89:E2:18:A3:40:E8
                DirName:/C=GB/O=Certificate Transparency CA/ST=Wales/L=Erw Wen
                serial:04

            X509v3 Basic Constraints: 
                CA:FALSE
            1.2.3.1: 
                ....X.`7...G0E. X".1......8.0............v....(j.!...W`.....7b.se.M
#...v.......".
    Signature Algorithm: sha1WithRSAEncryption
        b9:bc:44:fc:a4:aa:93:40:5d:60:85:3e:34:cd:73:bc:ef:bb:
        15:d9:f8:f9:71:01:0f:d8:34:64:dc:64:51:21:3c:5b:e3:37:
        32:66:33:d9:5b:92:53:87:b8:50:86:5c:d4:0c:ec:80:bb:a2:
        9e:cc:24:80:52:3c:96:4b:6b:3d:41:0b:96:fb:fd:d0:2e:a0:
        94:04:e3:65:d1:be:4c:a2:fa:30:a1:89:fb:da:ac:52:00:34:
        6c:44:d5:11:ad:4b:20:38:9e:c4:b2:f7:7f:57:ab:2e:bd:bb:
        55:30:9f:dd:7e:9f:88:b1:d2:be:fd:10:e2:20:f6:72:49:0a:
        1e:97
-----BEGIN CERTIFICATE-----
MIIDNTCCAp6gAwIBAgIBAjANBgkqhkiG9w0BAQUFADBiMQswCQYDVQQGEwJHQjEx
MC8GA1UEChMoQ2VydGlmaWNhdGUgVHJhbnNwYXJlbmN5IEludGVybWVkaWF0ZSBD
QTEOMAwGA1UECBMFV2FsZXMxEDAOBgNVBAcTB0VydyBXZW4wHhcNMTIwNjAxMDAw
MDAwWhcNMjIwNjAxMDAwMDAwWjBSMQswCQYDVQQGEwJHQjEhMB8GA1UEChMYQ2Vy
dGlmaWNhdGUgVHJhbnNwYXJlbmN5MQ4wDAYDVQQIEwVXYWxlczEQMA4GA1UEBxMH
RXJ3IFdlbjCBnzANBgkqhkiG9w0BAQEFAAOBjQAwgYkCgYEA0y7mLBof+SRsBeA9
1+NdNk4tbbGGRIysFhiS9oSTTbOQFbwjeyfC390H7Dfls7rZ6PBscGNcVf7C9xgD
CXAEEzFEudvF5kCWhdVQVum61HqbeNbVCcCOM7ejHboHkp0lI2eG4Ka1XxituLw0
LDRWLk7JzsA3pLSRJzqTE6snN8UCAwEAAaOCAQkwggEFMB0GA1UdDgQWBBQlGxue
Kp5Ac/sangYnp/IJ7nDXYTB9BgNVHSMEdjB0gBTfJSW63sV04vG/Idy7OIniGKNA
6KFZpFcwVTELMAkGA1UEBhMCR0IxJDAiBgNVBAoTG0NlcnRpZmljYXRlIFRyYW5z
cGFyZW5jeSBDQTEOMAwGA1UECBMFV2FsZXMxEDAOBgNVBAcTB0VydyBXZW6CAQQw
CQYDVR0TBAIwADBaBgMqAwEEUwAAAABYi2A3BAMARzBFAiBYIo4xHY/X9rS4OMcw
mZOC9cLWiQvpFKOMdtoGnQUoagIhAMauV2DvruD/yjdiiA1zZdlNCiOI0ZN2samw
gQK6iyLzMA0GCSqGSIb3DQEBBQUAA4GBALm8RPykqpNAXWCFPjTNc7zvuxXZ+Plx
AQ/YNGTcZFEhPFvjNzJmM9lbklOHuFCGXNQM7IC7op7MJIBSPJZLaz1BC5b7/dAu
oJQE42XRvkyi+jChifvarFIANGxE1RGtSyA4nsSy939Xqy69u1Uwn91+n4ix0r79
EOIg9nJJCh6X
-----END CERTIFICATE-----
