Certificate:
    Data:
        Version: 3 (0x2)
        Serial Number: 2 (0x2)
        Signature Algorithm: sha1WithRSAEncryption
        Issuer: C=GB, O=Certificate Transparency Intermediate ProtoCA, ST=Wales, L=Erw Wen
        Validity
            Not Before: Jun  1 00:00:00 2012 GMT
            Not After : Jun  1 00:00:00 2022 GMT
        Subject: C=GB, O=Certificate Transparency, ST=Wales, L=Erw Wen
        Subject Public Key Info:
            Public Key Algorithm: rsaEncryption
            RSA Public Key: (1024 bit)
                Modulus (1024 bit):
                    00:ad:5a:99:4f:82:72:63:63:b6:4e:43:fd:c1:6c:
                    6a:0b:2b:55:88:d9:d2:d1:55:58:7f:42:0f:1c:4b:
                    39:ff:ec:be:c5:c3:c5:62:ca:0c:71:ca:92:9f:41:
                    e8:8e:2d:86:57:b5:5c:d9:f5:72:a9:24:ee:43:d4:
                    2c:44:e0:55:07:3e:39:e5:6c:de:13:4f:89:ca:e0:
                    53:56:99:b4:76:1a:e0:15:1a:4b:76:8f:a8:30:4c:
                    cc:a3:a0:30:c8:0b:a4:d3:49:6c:e4:81:e3:9e:bc:
                    b3:1e:05:20:2c:df:98:18:c4:3d:01:a0:a2:0e:d6:
                    1c:45:d6:ae:1e:a2:16:87:63
                Exponent: 65537 (0x10001)
        X509v3 extensions:
            X509v3 Subject Key Identifier: 
                CB:CB:2A:D0:07:93:D4:D5:B3:DA:98:58:CC:96:EE:16:8F:D5:2E:EA
            X509v3 Authority Key Identifier: 
                keyid:BE:DE:11:96:53:06:81:6C:CA:09:10:C7:DE:E0:8E:B4:34:AA:30:2B
                DirName:/C=GB/O=Certificate Transparency Intermediate CA/ST=Wales/L=Erw Wen
                serial:00

            X509v3 Basic Constraints: 
                CA:FALSE
            1.2.3.2: critical
                poison
    Signature Algorithm: sha1WithRSAEncryption
        47:99:cd:71:25:01:6b:7a:f2:cd:74:83:ae:c9:f0:24:b7:56:
        d7:91:28:85:63:0b:ad:52:c3:7e:82:c8:ac:2f:6c:46:f2:33:
        50:d2:1e:43:fb:7a:5b:ea:b2:fa:29:46:ce:df:67:f5:2b:0e:
        84:1a:80:06:86:f8:69:c1:04:b1:d2:f2:71:89:ac:64:0b:78:
        0f:75:8c:fc:0b:7b:c6:e9:8a:ff:8a:2e:86:6e:63:65:ec:63:
        b3:f0:2e:1e:57:85:52:ef:e5:39:bd:81:40:1e:2d:71:7f:36:
        82:91:f3:bc:9a:dd:60:88:cd:f9:59:e5:4d:10:f4:ba:9f:8a:
        68:f7
-----BEGIN CERTIFICATE-----
MIIC/jCCAmegAwIBAgIBAjANBgkqhkiG9w0BAQUFADBnMQswCQYDVQQGEwJHQjE2
MDQGA1UEChMtQ2VydGlmaWNhdGUgVHJhbnNwYXJlbmN5IEludGVybWVkaWF0ZSBQ
cm90b0NBMQ4wDAYDVQQIEwVXYWxlczEQMA4GA1UEBxMHRXJ3IFdlbjAeFw0xMjA2
MDEwMDAwMDBaFw0yMjA2MDEwMDAwMDBaMFIxCzAJBgNVBAYTAkdCMSEwHwYDVQQK
ExhDZXJ0aWZpY2F0ZSBUcmFuc3BhcmVuY3kxDjAMBgNVBAgTBVdhbGVzMRAwDgYD
VQQHEwdFcncgV2VuMIGfMA0GCSqGSIb3DQEBAQUAA4GNADCBiQKBgQCtWplPgnJj
Y7ZOQ/3BbGoLK1WI2dLRVVh/Qg8cSzn/7L7Fw8ViygxxypKfQeiOLYZXtVzZ9XKp
JO5D1CxE4FUHPjnlbN4TT4nK4FNWmbR2GuAVGkt2j6gwTMyjoDDIC6TTSWzkgeOe
vLMeBSAs35gYxD0BoKIO1hxF1q4eohaHYwIDAQABo4HOMIHLMB0GA1UdDgQWBBTL
yyrQB5PU1bPamFjMlu4Wj9Uu6jCBjAYDVR0jBIGEMIGBgBS+3hGWUwaBbMoJEMfe
4I60NKowK6FmpGQwYjELMAkGA1UEBhMCR0IxMTAvBgNVBAoTKENlcnRpZmljYXRl
IFRyYW5zcGFyZW5jeSBJbnRlcm1lZGlhdGUgQ0ExDjAMBgNVBAgTBVdhbGVzMRAw
DgYDVQQHEwdFcncgV2VuggEAMAkGA1UdEwQCMAAwEAYDKgMCAQH/BAZwb2lzb24w
DQYJKoZIhvcNAQEFBQADgYEAR5nNcSUBa3ryzXSDrsnwJLdW15EohWMLrVLDfoLI
rC9sRvIzUNIeQ/t6W+qy+ilGzt9n9SsOhBqABob4acEEsdLycYmsZAt4D3WM/At7
xumK/4ouhm5jZexjs/AuHleFUu/lOb2BQB4tcX82gpHzvJrdYIjN+VnlTRD0up+K
aPc=
-----END CERTIFICATE-----
