Certificate:
    Data:
        Version: 3 (0x2)
        Serial Number: 1 (0x1)
        Signature Algorithm: sha1WithRSAEncryption
        Issuer: C=GB, O=Certificate Transparency Intermediate CA, ST=Wales, L=Erw Wen
        Validity
            Not Before: Jun  1 00:00:00 2012 GMT
            Not After : Jun  1 00:00:00 2022 GMT
        Subject: C=GB, O=Certificate Transparency, ST=Wales, L=Erw Wen
        Subject Public Key Info:
            Public Key Algorithm: rsaEncryption
            RSA Public Key: (1024 bit)
                Modulus (1024 bit):
                    00:d9:94:30:d4:d8:82:f3:95:1b:b7:4c:29:51:a8:
                    8f:98:1e:a0:01:76:23:e7:5c:60:ae:fd:5e:c2:3d:
                    52:8b:1a:fa:8f:ba:44:53:d8:e4:d5:96:1f:97:f6:
                    cb:40:4b:a7:ef:bd:b2:92:8f:d3:c5:e9:b5:8c:0d:
                    a5:71:86:d6:90:d3:56:07:3b:79:38:4e:f8:db:f0:
                    ac:54:70:e1:ed:f5:62:25:fb:2f:d6:39:49:62:fc:
                    dd:20:69:f0:5d:8d:6c:32:4c:55:92:11:8a:bd:6f:
                    07:22:1e:55:38:c4:18:0a:9f:87:47:25:03:bb:9e:
                    d7:df:07:a2:5a:e0:f8:cf:6f
                Exponent: 65537 (0x10001)
        X509v3 extensions:
            X509v3 Subject Key Identifier: 
                E5:EF:29:EB:77:DC:BE:89:88:35:DA:28:87:1E:1C:8A:77:58:76:49
            X509v3 Authority Key Identifier: 
                keyid:43:B5:88:B4:BA:03:96:14:EC:2B:F0:26:F0:7C:12:8D:64:A3:53:28
                DirName:/C=GB/O=Certificate Transparency CA/ST=Wales/L=Erw Wen
                serial:07

            X509v3 Basic Constraints: 
                CA:FALSE
    Signature Algorithm: sha1WithRSAEncryption
        77:e1:af:29:73:e6:a7:82:ec:f3:d2:f4:36:c9:38:05:36:9a:
        05:4f:81:a8:4d:41:ef:b3:d1:ab:5f:34:63:38:c2:2a:34:21:
        20:88:77:ef:f6:7a:4d:05:bf:d7:67:11:92:73:7f:1a:81:8f:
        53:32:62:04:e2:c2:be:7c:1b:05:93:99:19:02:72:19:b4:92:
        6f:c2:89:20:6c:6a:af:f5:f0:30:a4:63:fe:6c:cb:5a:7a:8d:
        c6:de:25:f7:2f:6b:1c:09:f3:89:b5:28:f9:bc:ed:77:29:20:
        58:8d:0e:d0:a2:d4:24:41:df:eb:26:92:18:59:11:b7:95:ff:
        e5:6d
-----BEGIN CERTIFICATE-----
MIIC1zCCAkCgAwIBAgIBATANBgkqhkiG9w0BAQUFADBiMQswCQYDVQQGEwJHQjEx
MC8GA1UEChMoQ2VydGlmaWNhdGUgVHJhbnNwYXJlbmN5IEludGVybWVkaWF0ZSBD
QTEOMAwGA1UECBMFV2FsZXMxEDAOBgNVBAcTB0VydyBXZW4wHhcNMTIwNjAxMDAw
MDAwWhcNMjIwNjAxMDAwMDAwWjBSMQswCQYDVQQGEwJHQjEhMB8GA1UEChMYQ2Vy
dGlmaWNhdGUgVHJhbnNwYXJlbmN5MQ4wDAYDVQQIEwVXYWxlczEQMA4GA1UEBxMH
RXJ3IFdlbjCBnzANBgkqhkiG9w0BAQEFAAOBjQAwgYkCgYEA2ZQw1NiC85Ubt0wp
UaiPmB6gAXYj51xgrv1ewj1Sixr6j7pEU9jk1ZYfl/bLQEun772yko/Txem1jA2l
cYbWkNNWBzt5OE742/CsVHDh7fViJfsv1jlJYvzdIGnwXY1sMkxVkhGKvW8HIh5V
OMQYCp+HRyUDu57X3weiWuD4z28CAwEAAaOBrDCBqTAdBgNVHQ4EFgQU5e8p63fc
vomINdoohx4cindYdkkwfQYDVR0jBHYwdIAUQ7WItLoDlhTsK/Am8HwSjWSjUyih
WaRXMFUxCzAJBgNVBAYTAkdCMSQwIgYDVQQKExtDZXJ0aWZpY2F0ZSBUcmFuc3Bh
cmVuY3kgQ0ExDjAMBgNVBAgTBVdhbGVzMRAwDgYDVQQHEwdFcncgV2VuggEHMAkG
A1UdEwQCMAAwDQYJKoZIhvcNAQEFBQADgYEAd+GvKXPmp4Ls89L0Nsk4BTaaBU+B
qE1B77PRq180YzjCKjQhIIh37/Z6TQW/12cRknN/GoGPUzJiBOLCvnwbBZOZGQJy
GbSSb8KJIGxqr/XwMKRj/mzLWnqNxt4l9y9rHAnzibUo+bztdykgWI0O0KLUJEHf
6yaSGFkRt5X/5W0=
-----END CERTIFICATE-----
