Certificate:
    Data:
        Version: 3 (0x2)
        Serial Number: 2 (0x2)
        Signature Algorithm: sha1WithRSAEncryption
        Issuer: C=GB, O=Certificate Transparency Intermediate CA, ST=Wales, L=Erw Wen
        Validity
            Not Before: Jun  1 00:00:00 2012 GMT
            Not After : Jun  1 00:00:00 2022 GMT
        Subject: C=GB, O=Certificate Transparency, ST=Wales, L=Erw Wen
        Subject Public Key Info:
            Public Key Algorithm: rsaEncryption
            RSA Public Key: (1024 bit)
                Modulus (1024 bit):
                    00:d9:94:30:d4:d8:82:f3:95:1b:b7:4c:29:51:a8:
                    8f:98:1e:a0:01:76:23:e7:5c:60:ae:fd:5e:c2:3d:
                    52:8b:1a:fa:8f:ba:44:53:d8:e4:d5:96:1f:97:f6:
                    cb:40:4b:a7:ef:bd:b2:92:8f:d3:c5:e9:b5:8c:0d:
                    a5:71:86:d6:90:d3:56:07:3b:79:38:4e:f8:db:f0:
                    ac:54:70:e1:ed:f5:62:25:fb:2f:d6:39:49:62:fc:
                    dd:20:69:f0:5d:8d:6c:32:4c:55:92:11:8a:bd:6f:
                    07:22:1e:55:38:c4:18:0a:9f:87:47:25:03:bb:9e:
                    d7:df:07:a2:5a:e0:f8:cf:6f
                Exponent: 65537 (0x10001)
        X509v3 extensions:
            X509v3 Subject Key Identifier: 
                E5:EF:29:EB:77:DC:BE:89:88:35:DA:28:87:1E:1C:8A:77:58:76:49
            X509v3 Authority Key Identifier: 
                keyid:43:B5:88:B4:BA:03:96:14:EC:2B:F0:26:F0:7C:12:8D:64:A3:53:28
                DirName:/C=GB/O=Certificate Transparency CA/ST=Wales/L=Erw Wen
                serial:07

            X509v3 Basic Constraints: 
                CA:FALSE
            1.3.6.1.4.1.11129.2.4.2: 
                .S...:s......G0E. .....(..'...6...HeH..-....Q).....!..0}.}....lWm~sj......>.....%...A
    Signature Algorithm: sha1WithRSAEncryption
        78:f2:7b:31:fc:39:1c:42:c7:7e:23:d9:d4:22:e3:4c:0e:0f:
        fa:9b:a6:45:78:4c:d5:19:60:ec:92:b6:b1:c9:f7:78:9a:34:
        bf:bb:d3:de:d2:d6:4b:3c:b2:28:22:30:2a:9b:3f:55:8e:39:
        f3:71:74:1a:15:32:70:fd:fc:b8:fb:3b:d0:97:a8:bf:21:9c:
        e2:5c:30:7f:1e:2c:8a:18:f4:55:7f:f0:c4:41:30:5e:1a:e2:
        ca:a4:7a:33:f8:f9:17:d5:d3:5c:8b:9c:fc:25:4d:b9:04:ad:
        91:c2:51:97:14:a4:70:22:53:ea:30:71:4f:a0:1b:15:98:f7:
        65:97
-----BEGIN CERTIFICATE-----
MIIDPjCCAqegAwIBAgIBAjANBgkqhkiG9w0BAQUFADBiMQswCQYDVQQGEwJHQjEx
MC8GA1UEChMoQ2VydGlmaWNhdGUgVHJhbnNwYXJlbmN5IEludGVybWVkaWF0ZSBD
QTEOMAwGA1UECBMFV2FsZXMxEDAOBgNVBAcTB0VydyBXZW4wHhcNMTIwNjAxMDAw
MDAwWhcNMjIwNjAxMDAwMDAwWjBSMQswCQYDVQQGEwJHQjEhMB8GA1UEChMYQ2Vy
dGlmaWNhdGUgVHJhbnNwYXJlbmN5MQ4wDAYDVQQIEwVXYWxlczEQMA4GA1UEBxMH
RXJ3IFdlbjCBnzANBgkqhkiG9w0BAQEFAAOBjQAwgYkCgYEA2ZQw1NiC85Ubt0wp
UaiPmB6gAXYj51xgrv1ewj1Sixr6j7pEU9jk1ZYfl/bLQEun772yko/Txem1jA2l
cYbWkNNWBzt5OE742/CsVHDh7fViJfsv1jlJYvzdIGnwXY1sMkxVkhGKvW8HIh5V
OMQYCp+HRyUDu57X3weiWuD4z28CAwEAAaOCARIwggEOMB0GA1UdDgQWBBTl7ynr
d9y+iYg12iiHHhyKd1h2STB9BgNVHSMEdjB0gBRDtYi0ugOWFOwr8CbwfBKNZKNT
KKFZpFcwVTELMAkGA1UEBhMCR0IxJDAiBgNVBAoTG0NlcnRpZmljYXRlIFRyYW5z
cGFyZW5jeSBDQTEOMAwGA1UECBMFV2FsZXMxEDAOBgNVBAcTB0VydyBXZW6CAQcw
CQYDVR0TBAIwADBjBgorBgEEAdZ5AgQCBFUEUwAAATpz58oCBAMARzBFAiAQmAm8
hyj+6yfRAao27IUXSGVI5octwYTow1EpC5OtLgIhAMQwfeJ9vhesoWxXbX5zapfp
H663Az75pBe4uiUEy5dBMA0GCSqGSIb3DQEBBQUAA4GBAHjyezH8ORxCx34j2dQi
40wOD/qbpkV4TNUZYOyStrHJ93iaNL+7097S1ks8sigiMCqbP1WOOfNxdBoVMnD9
/Lj7O9CXqL8hnOJcMH8eLIoY9FV/8MRBMF4a4sqkejP4+RfV01yLnPwlTbkErZHC
UZcUpHAiU+owcU+gGxWY92WX
-----END CERTIFICATE-----
