Certificate:
    Data:
        Version: 3 (0x2)
        Serial Number: 2 (0x2)
        Signature Algorithm: sha1WithRSAEncryption
        Issuer: C=GB, O=Certificate Transparency Intermediate PreCA, ST=Wales, L=Erw Wen
        Validity
            Not Before: Jun  1 00:00:00 2012 GMT
            Not After : Jun  1 00:00:00 2022 GMT
        Subject: C=GB, O=Certificate Transparency, ST=Wales, L=Erw Wen
        Subject Public Key Info:
            Public Key Algorithm: rsaEncryption
            RSA Public Key: (1024 bit)
                Modulus (1024 bit):
                    00:a7:dc:38:3f:97:89:75:08:02:2d:40:6b:9e:02:
                    e2:93:01:8e:bd:45:35:6f:3c:1f:e1:11:f5:7e:51:
                    7e:20:5a:9c:2a:62:00:7c:0b:20:9a:22:e8:f6:bb:
                    da:4d:70:35:8b:59:7c:59:53:57:81:1c:6f:1a:0b:
                    ea:0d:03:76:93:4b:7b:06:ed:0b:9d:f8:70:1c:dc:
                    38:65:4d:b3:77:59:5e:2f:08:c8:43:b2:d9:9d:a1:
                    64:b2:5b:91:98:0e:f3:e2:e7:d0:68:1f:75:3a:4c:
                    2b:1d:a3:86:5c:e2:e4:0b:9e:63:28:ca:5c:ca:d6:
                    5d:6d:9c:84:d7:a3:2d:89:89
                Exponent: 65537 (0x10001)
        X509v3 extensions:
            X509v3 Subject Key Identifier: 
                00:72:0B:CC:1C:F2:13:09:F7:EB:D5:9B:7A:6E:89:65:1D:9F:03:6F
            X509v3 Authority Key Identifier: 
                keyid:94:EC:B9:AF:BC:DA:7F:6E:51:7B:FF:59:51:17:48:FC:DE:11:77:79
                DirName:/C=GB/O=Certificate Transparency Intermediate CA/ST=Wales/L=Erw Wen
                serial:00

            X509v3 Basic Constraints: 
                CA:FALSE
            1.3.6.1.4.1.11129.2.4.3: critical
                ..
    Signature Algorithm: sha1WithRSAEncryption
        57:38:59:4e:45:cc:84:aa:2b:e9:7a:a5:81:12:ee:00:15:86:
        a5:00:8a:51:73:44:96:31:78:0d:f9:cf:ab:00:8f:21:1b:b1:
        e6:7f:f0:56:06:c5:a6:ed:f7:c9:19:b7:db:19:09:0d:cb:40:
        00:29:68:3e:2c:16:da:9f:0b:24:a9:2a:0a:44:38:5b:39:11:
        f9:a6:a5:dc:f5:06:2d:7f:38:9c:ce:4b:e4:ed:d1:b7:42:f0:
        1d:02:47:2d:1e:bd:a6:9e:94:40:e5:1e:28:f0:22:52:c2:06:
        7e:ff:f5:06:68:3b:94:08:9e:2e:9a:b2:a5:74:e9:aa:41:3a:
        a5:29
-----BEGIN CERTIFICATE-----
MIIC/zCCAmigAwIBAgIBAjANBgkqhkiG9w0BAQUFADBlMQswCQYDVQQGEwJHQjE0
MDIGA1UEChMrQ2VydGlmaWNhdGUgVHJhbnNwYXJlbmN5IEludGVybWVkaWF0ZSBQ
cmVDQTEOMAwGA1UECBMFV2FsZXMxEDAOBgNVBAcTB0VydyBXZW4wHhcNMTIwNjAx
MDAwMDAwWhcNMjIwNjAxMDAwMDAwWjBSMQswCQYDVQQGEwJHQjEhMB8GA1UEChMY
Q2VydGlmaWNhdGUgVHJhbnNwYXJlbmN5MQ4wDAYDVQQIEwVXYWxlczEQMA4GA1UE
BxMHRXJ3IFdlbjCBnzANBgkqhkiG9w0BAQEFAAOBjQAwgYkCgYEAp9w4P5eJdQgC
LUBrngLikwGOvUU1bzwf4RH1flF+IFqcKmIAfAsgmiLo9rvaTXA1i1l8WVNXgRxv
GgvqDQN2k0t7Bu0LnfhwHNw4ZU2zd1leLwjIQ7LZnaFksluRmA7z4ufQaB91Okwr
HaOGXOLkC55jKMpcytZdbZyE16MtiYkCAwEAAaOB0TCBzjAdBgNVHQ4EFgQUAHIL
zBzyEwn369Wbem6JZR2fA28wgYwGA1UdIwSBhDCBgYAUlOy5r7zaf25Re/9ZURdI
/N4Rd3mhZqRkMGIxCzAJBgNVBAYTAkdCMTEwLwYDVQQKEyhDZXJ0aWZpY2F0ZSBU
cmFuc3BhcmVuY3kgSW50ZXJtZWRpYXRlIENBMQ4wDAYDVQQIEwVXYWxlczEQMA4G
A1UEBxMHRXJ3IFdlboIBADAJBgNVHRMEAjAAMBMGCisGAQQB1nkCBAMBAf8EAgUA
MA0GCSqGSIb3DQEBBQUAA4GBAFc4WU5FzISqK+l6pYES7gAVhqUAilFzRJYxeA35
z6sAjyEbseZ/8FYGxabt98kZt9sZCQ3LQAApaD4sFtqfCySpKgpEOFs5Efmmpdz1
Bi1/OJzOS+Tt0bdC8B0CRy0evaaelEDlHijwIlLCBn7/9QZoO5QIni6asqV06apB
OqUp
-----END CERTIFICATE-----
