Certificate:
    Data:
        Version: 3 (0x2)
        Serial Number: 4 (0x4)
        Signature Algorithm: sha1WithRSAEncryption
        Issuer: C=GB, O=Certificate Transparency CA, ST=Wales, L=Erw Wen
        Validity
            Not Before: Jun  1 00:00:00 2012 GMT
            Not After : Jun  1 00:00:00 2022 GMT
        Subject: C=GB, O=Certificate Transparency, ST=Wales, L=Erw Wen
        Subject Public Key Info:
            Public Key Algorithm: rsaEncryption
            RSA Public Key: (1024 bit)
                Modulus (1024 bit):
                    00:b5:61:24:a2:83:02:41:42:e7:2f:63:0f:22:4c:
                    95:0b:1b:8f:dd:d4:7c:a4:fb:e3:2a:75:a4:c7:88:
                    1b:53:86:af:41:16:a2:ce:51:b3:fc:6d:f1:b0:4b:
                    cf:c8:45:e1:cf:5e:86:3d:6b:df:21:01:d3:47:58:
                    8f:c6:03:db:42:41:28:83:29:e8:a7:8a:90:de:bc:
                    96:8c:08:76:6d:47:3e:b8:6f:1a:eb:3f:9f:aa:4c:
                    8c:f1:70:51:f3:4b:26:a1:1f:ce:a6:57:cd:9e:f7:
                    3b:c5:76:4b:08:1a:6d:9c:d8:bb:8d:4a:9c:1c:49:
                    61:c3:99:a5:8e:a2:c1:e4:3b
                Exponent: 65537 (0x10001)
        X509v3 extensions:
            X509v3 Subject Key Identifier: 
                25:F2:9C:C0:02:E5:55:C1:F5:07:4C:95:01:BF:AD:43:96:EF:4B:61
            X509v3 Authority Key Identifier: 
                keyid:D6:DD:1D:FD:55:90:F8:14:A3:B2:19:C4:1B:2C:D7:AA:43:A6:DA:6B
                DirName:/C=GB/O=Certificate Transparency CA/ST=Wales/L=Erw Wen
                serial:00

            X509v3 Basic Constraints: 
                CA:FALSE
    Signature Algorithm: sha1WithRSAEncryption
        19:7e:30:cc:1b:3b:7e:4f:46:27:71:1d:58:ba:f8:49:25:b3:
        f4:c7:76:c9:e7:47:cc:f6:87:1e:b9:a5:62:81:f9:47:50:43:
        cb:92:45:a6:37:ea:a4:47:0e:a2:8e:93:e2:60:44:73:21:fa:
        63:e8:98:e4:99:b1:b2:ec:43:ed:21:c3:8d:e3:45:e9:e8:d0:
        05:4e:dd:e5:04:f7:b6:51:e3:d2:03:03:f5:49:01:77:55:b5:
        13:30:61:7b:27:61:cf:8d:18:d0:42:05:32:f4:59:a0:42:4a:
        67:27:b8:1f:8f:b1:46:f0:ee:d3:9a:86:79:6a:2d:f2:45:ab:
        f1:18
-----BEGIN CERTIFICATE-----
MIICyjCCAjOgAwIBAgIBBDANBgkqhkiG9w0BAQUFADBVMQswCQYDVQQGEwJHQjEk
MCIGA1UEChMbQ2VydGlmaWNhdGUgVHJhbnNwYXJlbmN5IENBMQ4wDAYDVQQIEwVX
YWxlczEQMA4GA1UEBxMHRXJ3IFdlbjAeFw0xMjA2MDEwMDAwMDBaFw0yMjA2MDEw
MDAwMDBaMFIxCzAJBgNVBAYTAkdCMSEwHwYDVQQKExhDZXJ0aWZpY2F0ZSBUcmFu
c3BhcmVuY3kxDjAMBgNVBAgTBVdhbGVzMRAwDgYDVQQHEwdFcncgV2VuMIGfMA0G
CSqGSIb3DQEBAQUAA4GNADCBiQKBgQC1YSSigwJBQucvYw8iTJULG4/d1Hyk++Mq
daTHiBtThq9BFqLOUbP8bfGwS8/IReHPXoY9a98hAdNHWI/GA9tCQSiDKeinipDe
vJaMCHZtRz64bxrrP5+qTIzxcFHzSyahH86mV82e9zvFdksIGm2c2LuNSpwcSWHD
maWOosHkOwIDAQABo4GsMIGpMB0GA1UdDgQWBBQl8pzAAuVVwfUHTJUBv61Dlu9L
YTB9BgNVHSMEdjB0gBTW3R39VZD4FKOyGcQbLNeqQ6baa6FZpFcwVTELMAkGA1UE
BhMCR0IxJDAiBgNVBAoTG0NlcnRpZmljYXRlIFRyYW5zcGFyZW5jeSBDQTEOMAwG
A1UECBMFV2FsZXMxEDAOBgNVBAcTB0VydyBXZW6CAQAwCQYDVR0TBAIwADANBgkq
hkiG9w0BAQUFAAOBgQAZfjDMGzt+T0YncR1YuvhJJbP0x3bJ50fM9oceuaVigflH
UEPLkkWmN+qkRw6ijpPiYERzIfpj6JjkmbGy7EPtIcON40Xp6NAFTt3lBPe2UePS
AwP1SQF3VbUTMGF7J2HPjRjQQgUy9FmgQkpnJ7gfj7FG8O7TmoZ5ai3yRavxGA==
-----END CERTIFICATE-----
