Certificate:
    Data:
        Version: 3 (0x2)
        Serial Number: 2 (0x2)
    Signature Algorithm: sha1WithRSAEncryption
        Issuer: C=GB, O=Certificate Transparency Intermediate CA, ST=Wales, L=Erw Wen
        Validity
            Not Before: Jun  1 00:00:00 2012 GMT
            Not After : Jun  1 00:00:00 2022 GMT
        Subject: C=GB, O=Certificate Transparency, ST=Wales, L=Erw Wen
        Subject Public Key Info:
            Public Key Algorithm: rsaEncryption
                Public-Key: (1024 bit)
                Modulus:
                    00:e1:8b:c5:61:0d:3d:6e:df:e7:15:44:f6:30:76:
                    13:24:ef:50:01:a9:89:11:c0:38:e6:47:b3:a6:96:
                    e2:16:7b:a9:e5:f0:64:35:8e:23:67:ec:14:03:72:
                    c3:87:04:e3:c6:a3:79:4f:4a:4e:5a:cc:86:63:09:
                    43:4a:6f:7d:ee:af:b2:f5:0e:44:92:da:b0:c5:6a:
                    f2:66:5d:f7:aa:e2:e7:84:d1:d3:3e:38:a7:c8:d2:
                    4a:6b:e8:85:2f:c4:ce:1c:9a:26:5d:b5:13:60:55:
                    79:90:e5:25:77:ed:19:1f:54:7c:20:e2:c0:40:c6:
                    37:e1:6c:46:c1:50:eb:dc:e9
                Exponent: 65537 (0x10001)
        X509v3 extensions:
            X509v3 Subject Key Identifier: 
                82:DD:48:D4:4F:86:00:B3:6B:DA:7B:8E:D7:B5:72:79:72:FF:4F:2F
            X509v3 Authority Key Identifier: 
                keyid:0D:19:29:3B:89:DD:BC:E3:1E:DF:7F:85:45:D4:4E:59:3C:B1:63:74
                DirName:/C=GB/O=Certificate Transparency CA/ST=Wales/L=Erw Wen
                serial:09

            X509v3 Basic Constraints: 
                CA:FALSE
            1.3.6.1.4.1.11129.2.4.3: critical
                ..
    Signature Algorithm: sha1WithRSAEncryption
         a5:57:af:aa:11:73:51:51:7a:81:8b:bf:b3:3d:f1:e4:ec:dc:
         06:a8:fe:63:0f:a8:95:20:8a:4b:a2:cf:4f:35:dc:6b:42:22:
         96:47:91:f6:0b:e1:1b:54:8d:ff:40:26:e4:63:47:5b:ba:a6:
         39:ae:57:59:c1:f8:6c:e0:0b:40:06:51:8e:3f:8e:c3:a5:84:
         56:88:8d:19:79:bb:19:f7:06:fa:ff:77:d8:a3:b1:e2:cc:0e:
         e5:73:d0:13:51:5a:39:d2:9d:52:e4:17:e5:49:08:54:28:ae:
         9e:64:86:eb:40:f3:93:c9:8e:af:33:98:f8:22:1e:72:88:b1:
         12:94
-----BEGIN CERTIFICATE-----
MIIC7DCCAlWgAwIBAgIBAjANBgkqhkiG9w0BAQUFADBiMQswCQYDVQQGEwJHQjEx
MC8GA1UEChMoQ2VydGlmaWNhdGUgVHJhbnNwYXJlbmN5IEludGVybWVkaWF0ZSBD
QTEOMAwGA1UECBMFV2FsZXMxEDAOBgNVBAcTB0VydyBXZW4wHhcNMTIwNjAxMDAw
MDAwWhcNMjIwNjAxMDAwMDAwWjBSMQswCQYDVQQGEwJHQjEhMB8GA1UEChMYQ2Vy
dGlmaWNhdGUgVHJhbnNwYXJlbmN5MQ4wDAYDVQQIEwVXYWxlczEQMA4GA1UEBxMH
RXJ3IFdlbjCBnzANBgkqhkiG9w0BAQEFAAOBjQAwgYkCgYEA4YvFYQ09bt/nFUT2
MHYTJO9QAamJEcA45kezppbiFnup5fBkNY4jZ+wUA3LDhwTjxqN5T0pOWsyGYwlD
Sm997q+y9Q5EktqwxWryZl33quLnhNHTPjinyNJKa+iFL8TOHJomXbUTYFV5kOUl
d+0ZH1R8IOLAQMY34WxGwVDr3OkCAwEAAaOBwTCBvjAdBgNVHQ4EFgQUgt1I1E+G
ALNr2nuO17VyeXL/Ty8wfQYDVR0jBHYwdIAUDRkpO4ndvOMe33+FRdROWTyxY3Sh
WaRXMFUxCzAJBgNVBAYTAkdCMSQwIgYDVQQKExtDZXJ0aWZpY2F0ZSBUcmFuc3Bh
cmVuY3kgQ0ExDjAMBgNVBAgTBVdhbGVzMRAwDgYDVQQHEwdFcncgV2VuggEJMAkG
A1UdEwQCMAAwEwYKKwYBBAHWeQIEAwEB/wQCBQAwDQYJKoZIhvcNAQEFBQADgYEA
pVevqhFzUVF6gYu/sz3x5OzcBqj+Yw+olSCKS6LPTzXca0IilkeR9gvhG1SN/0Am
5GNHW7qmOa5XWcH4bOALQAZRjj+Ow6WEVoiNGXm7GfcG+v932KOx4swO5XPQE1Fa
OdKdUuQX5UkIVCiunmSG60Dzk8mOrzOY+CIecoixEpQ=
-----END CERTIFICATE-----
