Certificate:
    Data:
        Version: 3 (0x2)
        Serial Number: 7 (0x7)
    Signature Algorithm: sha1WithRSAEncryption
        Issuer: C=GB, O=Certificate Transparency CA, ST=Wales, L=Erw Wen
        Validity
            Not Before: Jun  1 00:00:00 2012 GMT
            Not After : Jun  1 00:00:00 2022 GMT
        Subject: C=GB, O=Certificate Transparency, ST=Wales, L=Erw Wen
        Subject Public Key Info:
            Public Key Algorithm: rsaEncryption
                Public-Key: (1024 bit)
                Modulus:
                    00:be:d8:89:3c:c8:f1:77:ef:c5:48:df:49:61:44:
                    3f:99:9a:ed:a9:04:71:99:2f:81:8b:f8:b6:1d:0d:
                    f1:9d:6e:ec:3d:59:6c:9b:43:e6:00:33:a5:01:c8:
                    cf:fc:c4:38:f4:9f:5e:db:36:62:aa:ae:cf:18:0e:
                    7c:9b:59:fc:4b:d4:65:c1:8c:40:6b:3b:70:cd:de:
                    52:d5:de:c4:2a:ae:f9:13:c2:17:35:92:c7:61:30:
                    f2:39:9d:e6:cc:d6:e7:5e:04:cc:ea:7d:7e:4b:df:
                    4b:ac:b1:6b:5f:e6:97:29:74:bc:a8:bc:b3:e8:46:
                    8d:ec:94:1e:94:5f:df:98:31
                Exponent: 65537 (0x10001)
        X509v3 extensions:
            X509v3 Subject Key Identifier: 
                A4:99:8F:6B:0A:BE:FD:0E:54:9B:D5:6F:22:1D:A9:76:D0:CE:57:D6
            X509v3 Authority Key Identifier: 
                keyid:36:33:12:99:DB:DC:38:9D:1C:CC:FE:31:C0:8B:89:32:50:1A:8F:7C
                DirName:/C=GB/O=Certificate Transparency CA/ST=Wales/L=Erw Wen
                serial:00

            X509v3 Basic Constraints: 
                CA:FALSE
            1.3.6.1.4.1.11129.2.4.2: 
                .z.x.v..=...T..T..V.r....p.e..F.K.0.!.....<...2.....G0E. @W.EI..B..oj.j...........@P.dGhc.!..Ry.....*J....2ts..[.{2gv..;./..
    Signature Algorithm: sha1WithRSAEncryption
         74:3c:b5:a6:8a:b5:9e:d4:76:ba:29:56:bb:b0:18:a2:8a:48:
         9c:1e:37:ee:61:96:b5:4c:88:f9:cb:80:fb:8d:c1:e9:bb:68:
         c3:da:2b:91:da:1d:ef:8e:d8:fa:48:d5:65:81:cd:29:c2:ba:
         2e:ec:c2:0b:25:d4:06:81:ee:11:fb:15:b0:6e:5a:17:17:24:
         b5:6a:98:d2:77:8c:ba:a6:38:20:73:ee:83:5b:75:8a:5d:61:
         47:9a:ae:34:e5:52:26:b8:9e:d2:db:15:bb:3c:09:12:d8:41:
         9f:89:7c:fe:d3:a1:b0:79:34:25:20:6f:f8:45:82:a8:84:30:
         7f:7f
-----BEGIN CERTIFICATE-----
MIIDWTCCAsKgAwIBAgIBBzANBgkqhkiG9w0BAQUFADBVMQswCQYDVQQGEwJHQjEk
MCIGA1UEChMbQ2VydGlmaWNhdGUgVHJhbnNwYXJlbmN5IENBMQ4wDAYDVQQIEwVX
YWxlczEQMA4GA1UEBxMHRXJ3IFdlbjAeFw0xMjA2MDEwMDAwMDBaFw0yMjA2MDEw
MDAwMDBaMFIxCzAJBgNVBAYTAkdCMSEwHwYDVQQKExhDZXJ0aWZpY2F0ZSBUcmFu
c3BhcmVuY3kxDjAMBgNVBAgTBVdhbGVzMRAwDgYDVQQHEwdFcncgV2VuMIGfMA0G
CSqGSIb3DQEBAQUAA4GNADCBiQKBgQC+2Ik8yPF378VI30lhRD+Zmu2pBHGZL4GL
+LYdDfGdbuw9WWybQ+YAM6UByM/8xDj0n17bNmKqrs8YDnybWfxL1GXBjEBrO3DN
3lLV3sQqrvkTwhc1ksdhMPI5nebM1udeBMzqfX5L30ussWtf5pcpdLyovLPoRo3s
lB6UX9+YMQIDAQABo4IBOjCCATYwHQYDVR0OBBYEFKSZj2sKvv0OVJvVbyIdqXbQ
zlfWMH0GA1UdIwR2MHSAFDYzEpnb3DidHMz+McCLiTJQGo98oVmkVzBVMQswCQYD
VQQGEwJHQjEkMCIGA1UEChMbQ2VydGlmaWNhdGUgVHJhbnNwYXJlbmN5IENBMQ4w
DAYDVQQIEwVXYWxlczEQMA4GA1UEBxMHRXJ3IFdlboIBADAJBgNVHRMEAjAAMIGK
BgorBgEEAdZ5AgQCBHwEegB4AHYADD2f4AhUustU4xlW33K5BvcTcA5ljKhGEUsJ
MMEh+JQAAAE8886ZMgAABAMARzBFAiBAV71FSefOQoS0b2qiav8CvAmCFQaiDP7X
QFABZEdoYwIhAKBSeaStoLryKkoZBcShMnRz0YVbDHsyZ3a3rzvWL5+/MA0GCSqG
SIb3DQEBBQUAA4GBAHQ8taaKtZ7UdropVruwGKKKSJweN+5hlrVMiPnLgPuNwem7
aMPaK5HaHe+O2PpI1WWBzSnCui7swgsl1AaB7hH7FbBuWhcXJLVqmNJ3jLqmOCBz
7oNbdYpdYUearjTlUia4ntLbFbs8CRLYQZ+JfP7TobB5NCUgb/hFgqiEMH9/
-----END CERTIFICATE-----
