Certificate:
    Data:
        Version: 3 (0x2)
        Serial Number: 4 (0x4)
        Signature Algorithm: sha1WithRSAEncryption
        Issuer: C=GB, O=Certificate Transparency CA, ST=Wales, L=Erw Wen
        Validity
            Not Before: Jun  1 00:00:00 2012 GMT
            Not After : Jun  1 00:00:00 2022 GMT
        Subject: C=GB, O=Certificate Transparency Intermediate CA, ST=Wales, L=Erw Wen
        Subject Public Key Info:
            Public Key Algorithm: rsaEncryption
            RSA Public Key: (1024 bit)
                Modulus (1024 bit):
                    00:d3:94:a1:73:48:68:86:56:64:4e:c2:b9:74:9f:
                    e6:e2:31:a5:f4:73:f3:94:70:de:15:00:44:54:80:
                    c3:fb:8a:09:a5:23:1d:6b:f2:4c:cd:e9:30:2a:57:
                    b2:42:55:7d:de:8b:af:d1:79:94:34:d2:dd:59:6a:
                    55:ca:f0:fe:b4:03:ce:6e:0c:92:0b:97:2d:63:4e:
                    c1:c9:09:ae:33:49:4d:2b:cb:74:8e:dc:29:d9:29:
                    b5:00:50:a2:e9:26:87:9f:ca:15:3f:a3:7b:39:fc:
                    f0:8f:2d:93:75:6e:0d:6e:ff:50:e3:1d:20:1c:84:
                    b9:f8:f7:9a:88:e2:92:fa:53
                Exponent: 65537 (0x10001)
        X509v3 extensions:
            X509v3 Subject Key Identifier: 
                29:34:C5:5D:EC:22:31:3D:1F:52:75:61:30:78:B6:A2:D2:FD:07:97
            X509v3 Authority Key Identifier: 
                keyid:D6:DD:1D:FD:55:90:F8:14:A3:B2:19:C4:1B:2C:D7:AA:43:A6:DA:6B
                DirName:/C=GB/O=Certificate Transparency CA/ST=Wales/L=Erw Wen
                serial:00

            X509v3 Basic Constraints: 
                CA:TRUE
    Signature Algorithm: sha1WithRSAEncryption
        42:cb:1e:22:52:1d:52:2f:d5:2e:eb:0e:f6:cb:83:54:b7:2b:
        04:4f:8b:10:4b:48:5e:56:5a:94:67:1e:f0:db:80:08:1b:7c:
        46:17:cb:06:d8:c3:7f:02:b4:85:19:0f:0d:58:88:9a:bb:15:
        00:3f:16:f4:59:5a:19:0a:9b:d4:76:fd:e5:b0:ef:fb:45:ea:
        ac:b8:c0:87:22:76:89:c2:31:da:d8:9a:ba:71:07:f5:c3:03:
        ea:70:96:31:72:e3:c7:57:da:d6:c9:fe:42:39:97:bf:84:98:
        6a:d9:5f:73:57:c2:a8:b1:9e:bc:56:80:4a:fe:10:35:7d:43:
        3a:d6
-----BEGIN CERTIFICATE-----
MIIC3TCCAkagAwIBAgIBBDANBgkqhkiG9w0BAQUFADBVMQswCQYDVQQGEwJHQjEk
MCIGA1UEChMbQ2VydGlmaWNhdGUgVHJhbnNwYXJlbmN5IENBMQ4wDAYDVQQIEwVX
YWxlczEQMA4GA1UEBxMHRXJ3IFdlbjAeFw0xMjA2MDEwMDAwMDBaFw0yMjA2MDEw
MDAwMDBaMGIxCzAJBgNVBAYTAkdCMTEwLwYDVQQKEyhDZXJ0aWZpY2F0ZSBUcmFu
c3BhcmVuY3kgSW50ZXJtZWRpYXRlIENBMQ4wDAYDVQQIEwVXYWxlczEQMA4GA1UE
BxMHRXJ3IFdlbjCBnzANBgkqhkiG9w0BAQEFAAOBjQAwgYkCgYEA05Shc0hohlZk
TsK5dJ/m4jGl9HPzlHDeFQBEVIDD+4oJpSMda/JMzekwKleyQlV93ouv0XmUNNLd
WWpVyvD+tAPObgySC5ctY07ByQmuM0lNK8t0jtwp2Sm1AFCi6SaHn8oVP6N7Ofzw
jy2TdW4Nbv9Q4x0gHIS5+PeaiOKS+lMCAwEAAaOBrzCBrDAdBgNVHQ4EFgQUKTTF
XewiMT0fUnVhMHi2otL9B5cwfQYDVR0jBHYwdIAU1t0d/VWQ+BSjshnEGyzXqkOm
2muhWaRXMFUxCzAJBgNVBAYTAkdCMSQwIgYDVQQKExtDZXJ0aWZpY2F0ZSBUcmFu
c3BhcmVuY3kgQ0ExDjAMBgNVBAgTBVdhbGVzMRAwDgYDVQQHEwdFcncgV2VuggEA
MAwGA1UdEwQFMAMBAf8wDQYJKoZIhvcNAQEFBQADgYEAQsseIlIdUi/VLusO9suD
VLcrBE+LEEtIXlZalGce8NuACBt8RhfLBtjDfwK0hRkPDViImrsVAD8W9FlaGQqb
1Hb95bDv+0XqrLjAhyJ2icIx2tiaunEH9cMD6nCWMXLjx1fa1sn+QjmXv4SYatlf
c1fCqLGevFaASv4QNX1DOtY=
-----END CERTIFICATE-----
-----BEGIN CERTIFICATE-----
MIH0MIHpoAMCAQICEQCzi0Opjpmp/BA4TM6q2M9rMAsGCSqGSIb3DQEBBTAPMQ0w
CwYDVQQDEwRUZXN0MB4XDTEyMDcwMzEyNTEwMFoXDTEyMDcwMzEyNTEwMVowDzEN
MAsGA1UEAxMEdHNlVDAaMA0GCSqGSIb3DQEBAQUAAwkAMAYCAQMCAQOjZDBiMGAG
AyoDAAEB/wRWAAAAAAAAAAEAAAAABAMARjBEAiANOrc+10/taJvPERKwLG/STC9X
L84Xaf5sHYCexJFQ2AIgGubYbKSMXDvWbf4yqJQzYDnrrl6GFeV6ZtpnJQGHeUAw
AwYBAAMBAA==
-----END CERTIFICATE-----
