Certificate:
    Data:
        Version: 3 (0x2)
        Serial Number: 6 (0x6)
        Signature Algorithm: sha1WithRSAEncryption
        Issuer: C=GB, O=Certificate Transparency PreCA, ST=Wales, L=Erw Wen
        Validity
            Not Before: Jun  1 00:00:00 2012 GMT
            Not After : Jun  1 00:00:00 2022 GMT
        Subject: C=GB, O=Certificate Transparency, ST=Wales, L=Erw Wen
        Subject Public Key Info:
            Public Key Algorithm: rsaEncryption
            RSA Public Key: (1024 bit)
                Modulus (1024 bit):
                    00:bd:fb:bd:6a:f3:7d:55:26:f7:0c:5c:e4:04:98:
                    c3:56:61:c1:70:a9:e8:e3:d0:7d:8a:d0:29:ca:e1:
                    42:de:10:bc:a7:a5:f1:a7:ff:af:e5:5e:83:64:23:
                    2a:8a:f5:c1:d9:30:99:be:c0:00:7a:95:a5:ea:d5:
                    30:68:be:df:4a:91:40:1e:26:41:a7:99:db:6a:ac:
                    21:9c:d7:6c:c6:f9:32:51:c9:06:19:14:af:4b:cc:
                    85:1d:8a:13:6a:d3:fc:6d:70:42:e8:40:84:03:d8:
                    fb:c6:2f:46:13:b4:d4:61:17:06:fc:9a:4a:cc:46:
                    7f:22:f3:6d:30:fa:bc:e2:25
                Exponent: 65537 (0x10001)
        X509v3 extensions:
            X509v3 Subject Key Identifier: 
                36:FB:23:AB:80:44:CB:33:4F:53:FA:B4:AD:BB:CD:E1:3B:19:E1:EE
            X509v3 Authority Key Identifier: 
                keyid:C2:8E:22:E6:61:0C:95:82:7D:3E:6B:9E:14:73:80:B9:22:27:BF:DA
                DirName:/C=GB/O=Certificate Transparency CA/ST=Wales/L=Erw Wen
                serial:01

            X509v3 Basic Constraints: 
                CA:FALSE
            1.3.6.1.4.1.11129.2.4.3: critical
                ..
    Signature Algorithm: sha1WithRSAEncryption
        6b:88:ff:88:5d:78:33:25:27:4c:49:88:f0:b2:80:7d:91:19:
        0e:9c:20:d5:d8:7c:1b:e2:3d:35:3b:8b:71:14:5e:a6:ff:5f:
        28:93:aa:54:a0:2c:f2:e1:5a:7c:a4:0b:21:67:bf:6c:31:d8:
        3b:4c:aa:4b:c4:c6:43:62:21:88:74:d3:e0:cb:18:ed:e6:f3:
        c6:6e:48:10:33:fd:91:be:35:f4:97:58:f2:0f:b0:20:c5:07:
        98:1a:81:b4:d5:41:ac:03:67:e4:ac:fc:a9:a3:f7:83:61:51:
        a2:b2:bc:42:69:50:8c:bb:94:c0:70:b9:f6:94:cc:8f:8c:92:
        0f:95
-----BEGIN CERTIFICATE-----
MIIC4jCCAkugAwIBAgIBBjANBgkqhkiG9w0BAQUFADBYMQswCQYDVQQGEwJHQjEn
MCUGA1UEChMeQ2VydGlmaWNhdGUgVHJhbnNwYXJlbmN5IFByZUNBMQ4wDAYDVQQI
EwVXYWxlczEQMA4GA1UEBxMHRXJ3IFdlbjAeFw0xMjA2MDEwMDAwMDBaFw0yMjA2
MDEwMDAwMDBaMFIxCzAJBgNVBAYTAkdCMSEwHwYDVQQKExhDZXJ0aWZpY2F0ZSBU
cmFuc3BhcmVuY3kxDjAMBgNVBAgTBVdhbGVzMRAwDgYDVQQHEwdFcncgV2VuMIGf
MA0GCSqGSIb3DQEBAQUAA4GNADCBiQKBgQC9+71q831VJvcMXOQEmMNWYcFwqejj
0H2K0CnK4ULeELynpfGn/6/lXoNkIyqK9cHZMJm+wAB6laXq1TBovt9KkUAeJkGn
mdtqrCGc12zG+TJRyQYZFK9LzIUdihNq0/xtcELoQIQD2PvGL0YTtNRhFwb8mkrM
Rn8i820w+rziJQIDAQABo4HBMIG+MB0GA1UdDgQWBBQ2+yOrgETLM09T+rStu83h
Oxnh7jB9BgNVHSMEdjB0gBTCjiLmYQyVgn0+a54Uc4C5Iie/2qFZpFcwVTELMAkG
A1UEBhMCR0IxJDAiBgNVBAoTG0NlcnRpZmljYXRlIFRyYW5zcGFyZW5jeSBDQTEO
MAwGA1UECBMFV2FsZXMxEDAOBgNVBAcTB0VydyBXZW6CAQEwCQYDVR0TBAIwADAT
BgorBgEEAdZ5AgQDAQH/BAIFADANBgkqhkiG9w0BAQUFAAOBgQBriP+IXXgzJSdM
SYjwsoB9kRkOnCDV2Hwb4j01O4txFF6m/18ok6pUoCzy4Vp8pAshZ79sMdg7TKpL
xMZDYiGIdNPgyxjt5vPGbkgQM/2RvjX0l1jyD7AgxQeYGoG01UGsA2fkrPypo/eD
YVGisrxCaVCMu5TAcLn2lMyPjJIPlQ==
-----END CERTIFICATE-----
