Certificate:
    Data:
        Version: 3 (0x2)
        Serial Number: 6 (0x6)
        Signature Algorithm: sha1WithRSAEncryption
        Issuer: C=GB, O=Certificate Transparency PreCA, ST=Wales, L=Erw Wen
        Validity
            Not Before: Jun  1 00:00:00 2012 GMT
            Not After : Jun  1 00:00:00 2022 GMT
        Subject: C=GB, O=Certificate Transparency, ST=Wales, L=Erw Wen
        Subject Public Key Info:
            Public Key Algorithm: rsaEncryption
            RSA Public Key: (1024 bit)
                Modulus (1024 bit):
                    00:c6:86:34:89:92:f7:4b:2a:c9:34:7e:ba:e1:f6:
                    80:ed:b4:dc:02:57:91:3b:0a:f7:13:b9:ae:3b:94:
                    50:02:d5:49:bc:0d:74:0e:95:1f:31:bd:eb:7c:0f:
                    6c:66:99:03:90:77:90:89:97:9a:96:fa:73:ff:b8:
                    0d:0b:55:62:ca:08:60:0e:c7:c8:ad:ef:91:c8:19:
                    5a:69:4f:9d:37:f0:c0:b7:b7:98:28:99:7d:87:86:
                    4e:c7:df:ca:cf:01:cc:c3:22:c5:77:8b:58:ac:cf:
                    b0:79:0a:22:e1:64:92:e4:71:31:48:3d:b9:55:e3:
                    18:67:25:4c:be:65:32:84:b7
                Exponent: 65537 (0x10001)
        X509v3 extensions:
            X509v3 Subject Key Identifier: 
                38:39:46:38:D9:DD:32:9E:59:74:08:F8:BD:C8:E3:00:85:A9:63:8A
            X509v3 Authority Key Identifier: 
                keyid:1C:D0:44:DF:41:8A:6A:73:61:7D:B2:73:0D:09:1A:50:5F:63:83:FC
                DirName:/C=GB/O=Certificate Transparency CA/ST=Wales/L=Erw Wen
                serial:01

            X509v3 Basic Constraints: 
                CA:FALSE
            1.3.6.1.4.1.11129.2.4.3: critical
                ..
    Signature Algorithm: sha1WithRSAEncryption
        19:e1:3d:1c:ea:24:ba:fe:86:4a:a3:3b:e3:9d:51:e7:93:8f:
        30:5f:b5:14:98:3f:e7:5e:f9:ca:0c:44:70:f2:23:88:73:61:
        47:ea:31:f1:54:b7:4d:a4:1b:a8:60:1b:e1:4f:db:fa:f7:29:
        cd:d6:d5:0b:42:f2:ff:12:0a:7e:ef:6f:13:16:54:4e:fe:42:
        a2:f0:0b:a4:cc:52:31:2e:f1:88:d3:4a:05:2d:5c:6f:b3:fa:
        67:2c:71:4b:b1:d7:51:f0:ac:9f:bd:b5:52:64:e1:86:0a:9d:
        c7:6e:ca:69:d3:b3:cf:28:6d:ed:13:e7:12:41:db:0b:bd:f5:
        6b:ac
-----BEGIN CERTIFICATE-----
MIIC4jCCAkugAwIBAgIBBjANBgkqhkiG9w0BAQUFADBYMQswCQYDVQQGEwJHQjEn
MCUGA1UEChMeQ2VydGlmaWNhdGUgVHJhbnNwYXJlbmN5IFByZUNBMQ4wDAYDVQQI
EwVXYWxlczEQMA4GA1UEBxMHRXJ3IFdlbjAeFw0xMjA2MDEwMDAwMDBaFw0yMjA2
MDEwMDAwMDBaMFIxCzAJBgNVBAYTAkdCMSEwHwYDVQQKExhDZXJ0aWZpY2F0ZSBU
cmFuc3BhcmVuY3kxDjAMBgNVBAgTBVdhbGVzMRAwDgYDVQQHEwdFcncgV2VuMIGf
MA0GCSqGSIb3DQEBAQUAA4GNADCBiQKBgQDGhjSJkvdLKsk0frrh9oDttNwCV5E7
CvcTua47lFAC1Um8DXQOlR8xvet8D2xmmQOQd5CJl5qW+nP/uA0LVWLKCGAOx8it
75HIGVppT5038MC3t5gomX2Hhk7H38rPAczDIsV3i1isz7B5CiLhZJLkcTFIPblV
4xhnJUy+ZTKEtwIDAQABo4HBMIG+MB0GA1UdDgQWBBQ4OUY42d0ynll0CPi9yOMA
haljijB9BgNVHSMEdjB0gBQc0ETfQYpqc2F9snMNCRpQX2OD/KFZpFcwVTELMAkG
A1UEBhMCR0IxJDAiBgNVBAoTG0NlcnRpZmljYXRlIFRyYW5zcGFyZW5jeSBDQTEO
MAwGA1UECBMFV2FsZXMxEDAOBgNVBAcTB0VydyBXZW6CAQEwCQYDVR0TBAIwADAT
BgorBgEEAdZ5AgQDAQH/BAIFADANBgkqhkiG9w0BAQUFAAOBgQAZ4T0c6iS6/oZK
ozvjnVHnk48wX7UUmD/nXvnKDERw8iOIc2FH6jHxVLdNpBuoYBvhT9v69ynN1tUL
QvL/Egp+728TFlRO/kKi8AukzFIxLvGI00oFLVxvs/pnLHFLsddR8KyfvbVSZOGG
Cp3Hbspp07PPKG3tE+cSQdsLvfVrrA==
-----END CERTIFICATE-----
