Certificate:
    Data:
        Version: 3 (0x2)
        Serial Number: 1 (0x1)
    Signature Algorithm: sha1WithRSAEncryption
        Issuer: C=GB, O=Certificate Transparency Intermediate CA, ST=Wales, L=Erw Wen
        Validity
            Not Before: Jun  1 00:00:00 2012 GMT
            Not After : Jun  1 00:00:00 2022 GMT
        Subject: C=GB, O=Certificate Transparency, ST=Wales, L=Erw Wen
        Subject Public Key Info:
            Public Key Algorithm: rsaEncryption
                Public-Key: (1024 bit)
                Modulus:
                    00:f0:07:b3:82:01:85:2e:fe:42:27:29:a0:51:0c:
                    4d:06:f1:90:f1:7c:c0:77:46:45:01:f9:43:c4:b8:
                    fd:78:37:13:84:59:9d:d8:5b:2b:ea:a5:5b:8d:9b:
                    84:41:af:7f:af:91:78:e5:5d:ec:ef:14:bd:ef:af:
                    f6:74:85:7e:67:45:43:42:ae:d3:5b:85:3e:bf:a6:
                    89:f6:17:ea:cc:b5:b8:5d:c4:c4:37:42:70:91:54:
                    24:d3:da:ea:de:75:3b:01:09:8b:35:e9:ef:f8:71:
                    a8:43:1c:e1:32:0a:44:2f:98:7a:a7:ae:a9:f5:e0:
                    66:d1:69:60:bd:43:65:41:dd
                Exponent: 65537 (0x10001)
        X509v3 extensions:
            X509v3 Subject Key Identifier: 
                40:5E:9F:96:0C:AE:28:59:0E:DB:A3:94:9E:89:4A:51:7B:3E:31:24
            X509v3 Authority Key Identifier: 
                keyid:0D:19:29:3B:89:DD:BC:E3:1E:DF:7F:85:45:D4:4E:59:3C:B1:63:74
                DirName:/C=GB/O=Certificate Transparency CA/ST=Wales/L=Erw Wen
                serial:09

            X509v3 Basic Constraints: 
                CA:FALSE
    Signature Algorithm: sha1WithRSAEncryption
         94:31:01:60:c2:7c:6e:be:b4:ac:d9:32:29:a3:80:ea:d6:32:
         85:f2:b3:ea:87:c5:e0:cc:b7:34:e0:cb:f3:9a:8e:bf:0d:e8:
         1f:49:9a:c9:d3:61:81:8e:88:dc:ab:a5:98:c5:7f:6d:65:ba:
         d6:76:c5:5b:6a:93:52:40:78:0e:06:ed:61:c0:0f:2d:bf:19:
         8f:26:d4:7b:a3:36:7a:cf:65:54:7f:5f:29:4a:21:47:10:92:
         c4:d0:84:c6:bd:80:1b:e6:6e:4b:9e:08:a9:3c:5e:b0:e4:6d:
         a5:6a:b3:d0:05:fb:8a:9a:13:0b:86:b2:4f:c3:c4:20:0f:bb:
         93:8b
-----BEGIN CERTIFICATE-----
MIIC1zCCAkCgAwIBAgIBATANBgkqhkiG9w0BAQUFADBiMQswCQYDVQQGEwJHQjEx
MC8GA1UEChMoQ2VydGlmaWNhdGUgVHJhbnNwYXJlbmN5IEludGVybWVkaWF0ZSBD
QTEOMAwGA1UECBMFV2FsZXMxEDAOBgNVBAcTB0VydyBXZW4wHhcNMTIwNjAxMDAw
MDAwWhcNMjIwNjAxMDAwMDAwWjBSMQswCQYDVQQGEwJHQjEhMB8GA1UEChMYQ2Vy
dGlmaWNhdGUgVHJhbnNwYXJlbmN5MQ4wDAYDVQQIEwVXYWxlczEQMA4GA1UEBxMH
RXJ3IFdlbjCBnzANBgkqhkiG9w0BAQEFAAOBjQAwgYkCgYEA8AezggGFLv5CJymg
UQxNBvGQ8XzAd0ZFAflDxLj9eDcThFmd2Fsr6qVbjZuEQa9/r5F45V3s7xS976/2
dIV+Z0VDQq7TW4U+v6aJ9hfqzLW4XcTEN0JwkVQk09rq3nU7AQmLNenv+HGoQxzh
MgpEL5h6p66p9eBm0WlgvUNlQd0CAwEAAaOBrDCBqTAdBgNVHQ4EFgQUQF6flgyu
KFkO26OUnolKUXs+MSQwfQYDVR0jBHYwdIAUDRkpO4ndvOMe33+FRdROWTyxY3Sh
WaRXMFUxCzAJBgNVBAYTAkdCMSQwIgYDVQQKExtDZXJ0aWZpY2F0ZSBUcmFuc3Bh
cmVuY3kgQ0ExDjAMBgNVBAgTBVdhbGVzMRAwDgYDVQQHEwdFcncgV2VuggEJMAkG
A1UdEwQCMAAwDQYJKoZIhvcNAQEFBQADgYEAlDEBYMJ8br60rNkyKaOA6tYyhfKz
6ofF4My3NODL85qOvw3oH0maydNhgY6I3KulmMV/bWW61nbFW2qTUkB4DgbtYcAP
Lb8ZjybUe6M2es9lVH9fKUohRxCSxNCExr2AG+ZuS54IqTxesORtpWqz0AX7ipoT
C4ayT8PEIA+7k4s=
-----END CERTIFICATE-----
