Certificate:
    Data:
        Version: 3 (0x2)
        Serial Number: 2 (0x2)
        Signature Algorithm: sha1WithRSAEncryption
        Issuer: C=GB, O=Certificate Transparency CA, ST=Wales, L=Erw Wen
        Validity
            Not Before: Jun  1 00:00:00 2012 GMT
            Not After : Jun  1 00:00:00 2022 GMT
        Subject: C=GB, O=Certificate Transparency, ST=Wales, L=Erw Wen
        Subject Public Key Info:
            Public Key Algorithm: rsaEncryption
            RSA Public Key: (1024 bit)
                Modulus (1024 bit):
                    00:cb:fb:4d:9f:4a:e4:3d:7e:d8:64:cc:d7:ad:47:
                    7b:0c:9c:83:70:95:72:16:54:a7:3b:e6:2c:55:68:
                    5f:5d:41:ee:07:ef:e6:ef:6c:f9:5d:15:22:b3:19:
                    e9:43:30:ea:0b:b9:ff:56:c4:e8:d5:4c:e0:e5:8b:
                    af:e8:bb:bb:3c:bc:18:1b:69:8e:c9:8d:d0:96:92:
                    1d:73:24:cb:2d:57:f1:df:c2:c1:a4:67:02:c5:ba:
                    76:b1:41:f1:06:bc:56:83:ac:5f:6b:ae:98:0f:25:
                    b8:1d:4d:9e:26:08:ae:98:a2:31:8f:d7:36:d7:a3:
                    fa:cb:5e:39:89:c5:bb:01:01
                Exponent: 65537 (0x10001)
        X509v3 extensions:
            X509v3 Subject Key Identifier: 
                44:64:12:7B:92:B4:F8:53:24:D6:25:A5:B3:98:FA:0E:A2:A8:AA:14
            X509v3 Authority Key Identifier: 
                keyid:D6:DD:1D:FD:55:90:F8:14:A3:B2:19:C4:1B:2C:D7:AA:43:A6:DA:6B
                DirName:/C=GB/O=Certificate Transparency CA/ST=Wales/L=Erw Wen
                serial:00

            X509v3 Basic Constraints: 
                CA:FALSE
    Signature Algorithm: sha1WithRSAEncryption
        7a:54:90:a2:91:71:04:0d:32:91:15:17:3f:59:2a:0c:0d:74:
        92:23:01:cf:b9:11:b6:ff:d3:a2:a2:ff:7d:64:f2:dd:09:bc:
        b0:5e:65:24:3a:ce:71:03:4c:13:b9:9e:0e:2c:ac:87:1f:bb:
        c5:52:d8:f3:7c:93:24:e8:4c:39:94:54:dd:af:b7:7c:4b:3f:
        6d:98:bd:32:d8:84:82:5a:67:82:d8:1e:36:7e:50:81:85:eb:
        3f:ef:be:4b:a1:e3:19:ff:f3:b8:dd:14:b3:c4:55:64:ac:3d:
        d4:70:76:02:e0:e4:0f:e3:b6:32:5c:cd:6d:8e:34:d2:69:e8:
        39:bc
-----BEGIN CERTIFICATE-----
MIICyjCCAjOgAwIBAgIBAjANBgkqhkiG9w0BAQUFADBVMQswCQYDVQQGEwJHQjEk
MCIGA1UEChMbQ2VydGlmaWNhdGUgVHJhbnNwYXJlbmN5IENBMQ4wDAYDVQQIEwVX
YWxlczEQMA4GA1UEBxMHRXJ3IFdlbjAeFw0xMjA2MDEwMDAwMDBaFw0yMjA2MDEw
MDAwMDBaMFIxCzAJBgNVBAYTAkdCMSEwHwYDVQQKExhDZXJ0aWZpY2F0ZSBUcmFu
c3BhcmVuY3kxDjAMBgNVBAgTBVdhbGVzMRAwDgYDVQQHEwdFcncgV2VuMIGfMA0G
CSqGSIb3DQEBAQUAA4GNADCBiQKBgQDL+02fSuQ9fthkzNetR3sMnINwlXIWVKc7
5ixVaF9dQe4H7+bvbPldFSKzGelDMOoLuf9WxOjVTODli6/ou7s8vBgbaY7JjdCW
kh1zJMstV/HfwsGkZwLFunaxQfEGvFaDrF9rrpgPJbgdTZ4mCK6YojGP1zbXo/rL
XjmJxbsBAQIDAQABo4GsMIGpMB0GA1UdDgQWBBREZBJ7krT4UyTWJaWzmPoOoqiq
FDB9BgNVHSMEdjB0gBTW3R39VZD4FKOyGcQbLNeqQ6baa6FZpFcwVTELMAkGA1UE
BhMCR0IxJDAiBgNVBAoTG0NlcnRpZmljYXRlIFRyYW5zcGFyZW5jeSBDQTEOMAwG
A1UECBMFV2FsZXMxEDAOBgNVBAcTB0VydyBXZW6CAQAwCQYDVR0TBAIwADANBgkq
hkiG9w0BAQUFAAOBgQB6VJCikXEEDTKRFRc/WSoMDXSSIwHPuRG2/9Oiov99ZPLd
CbywXmUkOs5xA0wTuZ4OLKyHH7vFUtjzfJMk6Ew5lFTdr7d8Sz9tmL0y2ISCWmeC
2B42flCBhes/775LoeMZ//O43RSzxFVkrD3UcHYC4OQP47YyXM1tjjTSaeg5vA==
-----END CERTIFICATE-----
