Certificate:
    Data:
        Version: 3 (0x2)
        Serial Number: 6 (0x6)
    Signature Algorithm: sha1WithRSAEncryption
        Issuer: C=GB, O=Certificate Transparency CA, ST=Wales, L=Erw Wen
        Validity
            Not Before: Jun  1 00:00:00 2012 GMT
            Not After : Jun  1 00:00:00 2022 GMT
        Subject: C=GB, O=Certificate Transparency, ST=Wales, L=Erw Wen
        Subject Public Key Info:
            Public Key Algorithm: rsaEncryption
                Public-Key: (1024 bit)
                Modulus:
                    00:a6:1b:fb:ed:b4:89:b4:1b:09:c2:ad:06:7a:6a:
                    f0:9d:c7:09:d3:c9:52:fa:60:52:4f:f6:05:bb:3f:
                    f8:7b:91:6a:ec:59:ed:e5:62:70:67:1e:47:e7:a7:
                    03:a0:3c:1c:b9:02:3b:04:9c:d0:8f:23:ba:66:8b:
                    f5:ea:b2:b9:02:b3:b1:bd:5a:82:ef:28:87:1b:c4:
                    cf:4d:fc:4f:da:3a:de:bd:fd:3a:2d:e8:7a:d5:d0:
                    75:84:b6:67:f3:7a:d1:8a:67:f6:89:7f:8b:13:93:
                    a1:71:c4:5c:5d:93:c7:33:0d:21:eb:9a:8c:8d:c3:
                    a1:c0:0d:0c:81:d2:0a:7c:c7
                Exponent: 65537 (0x10001)
        X509v3 extensions:
            X509v3 Subject Key Identifier: 
                9C:A1:B8:0F:09:AB:10:5D:89:5D:00:2E:12:E2:85:4E:2F:0E:18:27
            X509v3 Authority Key Identifier: 
                keyid:36:33:12:99:DB:DC:38:9D:1C:CC:FE:31:C0:8B:89:32:50:1A:8F:7C
                DirName:/C=GB/O=Certificate Transparency CA/ST=Wales/L=Erw Wen
                serial:00

            X509v3 Basic Constraints: 
                CA:FALSE
    Signature Algorithm: sha1WithRSAEncryption
         bb:eb:5c:86:f6:dc:80:1b:8b:f0:95:18:38:de:b3:d8:a1:87:
         ce:d3:9b:f0:0d:9a:82:d8:b1:2f:2a:06:45:ab:c7:4d:b8:0e:
         2c:60:fd:02:21:6a:79:ec:df:45:5a:a1:8c:71:58:af:55:dc:
         d7:7b:db:6d:3d:db:e4:bb:88:9b:d6:33:1d:41:90:de:5a:9f:
         49:39:fb:ca:58:14:6d:8a:81:9e:f1:43:cf:68:f9:41:58:85:
         c0:87:16:0a:b3:81:48:24:37:7b:1a:b3:7f:30:58:cd:c6:c4:
         1a:10:6a:db:08:5b:d0:7d:8f:a6:e4:c5:eb:e2:df:79:71:42:
         ea:7b
-----BEGIN CERTIFICATE-----
MIICyjCCAjOgAwIBAgIBBjANBgkqhkiG9w0BAQUFADBVMQswCQYDVQQGEwJHQjEk
MCIGA1UEChMbQ2VydGlmaWNhdGUgVHJhbnNwYXJlbmN5IENBMQ4wDAYDVQQIEwVX
YWxlczEQMA4GA1UEBxMHRXJ3IFdlbjAeFw0xMjA2MDEwMDAwMDBaFw0yMjA2MDEw
MDAwMDBaMFIxCzAJBgNVBAYTAkdCMSEwHwYDVQQKExhDZXJ0aWZpY2F0ZSBUcmFu
c3BhcmVuY3kxDjAMBgNVBAgTBVdhbGVzMRAwDgYDVQQHEwdFcncgV2VuMIGfMA0G
CSqGSIb3DQEBAQUAA4GNADCBiQKBgQCmG/vttIm0GwnCrQZ6avCdxwnTyVL6YFJP
9gW7P/h7kWrsWe3lYnBnHkfnpwOgPBy5AjsEnNCPI7pmi/XqsrkCs7G9WoLvKIcb
xM9N/E/aOt69/Tot6HrV0HWEtmfzetGKZ/aJf4sTk6FxxFxdk8czDSHrmoyNw6HA
DQyB0gp8xwIDAQABo4GsMIGpMB0GA1UdDgQWBBScobgPCasQXYldAC4S4oVOLw4Y
JzB9BgNVHSMEdjB0gBQ2MxKZ29w4nRzM/jHAi4kyUBqPfKFZpFcwVTELMAkGA1UE
BhMCR0IxJDAiBgNVBAoTG0NlcnRpZmljYXRlIFRyYW5zcGFyZW5jeSBDQTEOMAwG
A1UECBMFV2FsZXMxEDAOBgNVBAcTB0VydyBXZW6CAQAwCQYDVR0TBAIwADANBgkq
hkiG9w0BAQUFAAOBgQC761yG9tyAG4vwlRg43rPYoYfO05vwDZqC2LEvKgZFq8dN
uA4sYP0CIWp57N9FWqGMcVivVdzXe9ttPdvku4ib1jMdQZDeWp9JOfvKWBRtioGe
8UPPaPlBWIXAhxYKs4FIJDd7GrN/MFjNxsQaEGrbCFvQfY+m5MXr4t95cULqew==
-----END CERTIFICATE-----
