Certificate:
    Data:
        Version: 3 (0x2)
        Serial Number: 8 (0x8)
        Signature Algorithm: sha1WithRSAEncryption
        Issuer: C=GB, O=Certificate Transparency CA, ST=Wales, L=Erw Wen
        Validity
            Not Before: Jun  1 00:00:00 2012 GMT
            Not After : Jun  1 00:00:00 2022 GMT
        Subject: C=GB, O=Certificate Transparency, ST=Wales, L=Erw Wen
        Subject Public Key Info:
            Public Key Algorithm: rsaEncryption
            RSA Public Key: (1024 bit)
                Modulus (1024 bit):
                    00:bd:fb:bd:6a:f3:7d:55:26:f7:0c:5c:e4:04:98:
                    c3:56:61:c1:70:a9:e8:e3:d0:7d:8a:d0:29:ca:e1:
                    42:de:10:bc:a7:a5:f1:a7:ff:af:e5:5e:83:64:23:
                    2a:8a:f5:c1:d9:30:99:be:c0:00:7a:95:a5:ea:d5:
                    30:68:be:df:4a:91:40:1e:26:41:a7:99:db:6a:ac:
                    21:9c:d7:6c:c6:f9:32:51:c9:06:19:14:af:4b:cc:
                    85:1d:8a:13:6a:d3:fc:6d:70:42:e8:40:84:03:d8:
                    fb:c6:2f:46:13:b4:d4:61:17:06:fc:9a:4a:cc:46:
                    7f:22:f3:6d:30:fa:bc:e2:25
                Exponent: 65537 (0x10001)
        X509v3 extensions:
            X509v3 Subject Key Identifier: 
                36:FB:23:AB:80:44:CB:33:4F:53:FA:B4:AD:BB:CD:E1:3B:19:E1:EE
            X509v3 Authority Key Identifier: 
                keyid:6F:D4:9B:2C:46:DD:97:71:FF:E4:3A:A6:09:44:6C:9B:19:62:7D:F8
                DirName:/C=GB/O=Certificate Transparency CA/ST=Wales/L=Erw Wen
                serial:00

            X509v3 Basic Constraints: 
                CA:FALSE
            1.3.6.1.4.1.11129.2.4.2: 
                .S...:s......G0E. .....(..'...6...HeH..-....Q).....!..0}.}....lWm~sj......>.....%...A
    Signature Algorithm: sha1WithRSAEncryption
        ba:a8:2a:f6:ff:4d:e5:eb:96:d8:0e:ed:75:80:13:ed:78:c3:
        53:92:ff:df:03:47:60:ed:0d:dd:50:f8:88:62:26:a8:8f:56:
        af:08:56:7b:a8:cb:e1:fc:0e:f6:e4:ec:0c:dd:e9:09:2e:fd:
        c0:6e:36:8a:dc:5c:5e:50:f3:ef:98:6e:1f:da:89:81:74:dc:
        ff:28:89:41:d0:5c:7e:ba:b6:ec:c1:cf:39:80:84:71:a7:79:
        9b:e2:75:f4:19:a7:49:3e:b1:51:25:cb:d4:0a:76:da:8f:67:
        e0:b2:18:d6:6e:45:af:da:d4:1c:6b:7a:63:36:f6:bf:f5:e1:
        e8:ce
-----BEGIN CERTIFICATE-----
MIIDMTCCApqgAwIBAgIBCDANBgkqhkiG9w0BAQUFADBVMQswCQYDVQQGEwJHQjEk
MCIGA1UEChMbQ2VydGlmaWNhdGUgVHJhbnNwYXJlbmN5IENBMQ4wDAYDVQQIEwVX
YWxlczEQMA4GA1UEBxMHRXJ3IFdlbjAeFw0xMjA2MDEwMDAwMDBaFw0yMjA2MDEw
MDAwMDBaMFIxCzAJBgNVBAYTAkdCMSEwHwYDVQQKExhDZXJ0aWZpY2F0ZSBUcmFu
c3BhcmVuY3kxDjAMBgNVBAgTBVdhbGVzMRAwDgYDVQQHEwdFcncgV2VuMIGfMA0G
CSqGSIb3DQEBAQUAA4GNADCBiQKBgQC9+71q831VJvcMXOQEmMNWYcFwqejj0H2K
0CnK4ULeELynpfGn/6/lXoNkIyqK9cHZMJm+wAB6laXq1TBovt9KkUAeJkGnmdtq
rCGc12zG+TJRyQYZFK9LzIUdihNq0/xtcELoQIQD2PvGL0YTtNRhFwb8mkrMRn8i
820w+rziJQIDAQABo4IBEjCCAQ4wHQYDVR0OBBYEFDb7I6uARMszT1P6tK27zeE7
GeHuMH0GA1UdIwR2MHSAFG/UmyxG3Zdx/+Q6pglEbJsZYn34oVmkVzBVMQswCQYD
VQQGEwJHQjEkMCIGA1UEChMbQ2VydGlmaWNhdGUgVHJhbnNwYXJlbmN5IENBMQ4w
DAYDVQQIEwVXYWxlczEQMA4GA1UEBxMHRXJ3IFdlboIBADAJBgNVHRMEAjAAMGMG
CisGAQQB1nkCBAIEVQRTAAABOnPnygIEAwBHMEUCIBCYCbyHKP7rJ9EBqjbshRdI
ZUjmhy3BhOjDUSkLk60uAiEAxDB94n2+F6yhbFdtfnNql+kfrrcDPvmkF7i6JQTL
l0EwDQYJKoZIhvcNAQEFBQADgYEAuqgq9v9N5euW2A7tdYAT7XjDU5L/3wNHYO0N
3VD4iGImqI9WrwhWe6jL4fwO9uTsDN3pCS79wG42itxcXlDz75huH9qJgXTc/yiJ
QdBcfrq27MHPOYCEcad5m+J19BmnST6xUSXL1Ap22o9n4LIY1m5Fr9rUHGt6Yzb2
v/Xh6M4=
-----END CERTIFICATE-----
