Certificate:
    Data:
        Version: 3 (0x2)
        Serial Number: 5 (0x5)
        Signature Algorithm: sha1WithRSAEncryption
        Issuer: C=GB, O=Certificate Transparency CA, ST=Wales, L=Erw Wen
        Validity
            Not Before: Jun  1 00:00:00 2012 GMT
            Not After : Jun  1 00:00:00 2022 GMT
        Subject: C=GB, O=Certificate Transparency, ST=Wales, L=Erw Wen
        Subject Public Key Info:
            Public Key Algorithm: rsaEncryption
            RSA Public Key: (1024 bit)
                Modulus (1024 bit):
                    00:b5:61:24:a2:83:02:41:42:e7:2f:63:0f:22:4c:
                    95:0b:1b:8f:dd:d4:7c:a4:fb:e3:2a:75:a4:c7:88:
                    1b:53:86:af:41:16:a2:ce:51:b3:fc:6d:f1:b0:4b:
                    cf:c8:45:e1:cf:5e:86:3d:6b:df:21:01:d3:47:58:
                    8f:c6:03:db:42:41:28:83:29:e8:a7:8a:90:de:bc:
                    96:8c:08:76:6d:47:3e:b8:6f:1a:eb:3f:9f:aa:4c:
                    8c:f1:70:51:f3:4b:26:a1:1f:ce:a6:57:cd:9e:f7:
                    3b:c5:76:4b:08:1a:6d:9c:d8:bb:8d:4a:9c:1c:49:
                    61:c3:99:a5:8e:a2:c1:e4:3b
                Exponent: 65537 (0x10001)
        X509v3 extensions:
            X509v3 Subject Key Identifier: 
                25:F2:9C:C0:02:E5:55:C1:F5:07:4C:95:01:BF:AD:43:96:EF:4B:61
            X509v3 Authority Key Identifier: 
                keyid:D6:DD:1D:FD:55:90:F8:14:A3:B2:19:C4:1B:2C:D7:AA:43:A6:DA:6B
                DirName:/C=GB/O=Certificate Transparency CA/ST=Wales/L=Erw Wen
                serial:00

            X509v3 Basic Constraints: 
                CA:FALSE
            1.2.3.1: 
                ...............H0F.!............2..........1...[./.t..!.....UB`..`e.K...i.^.....9 ...V..
    Signature Algorithm: sha1WithRSAEncryption
        5a:5a:37:98:d5:53:83:5c:a3:94:c4:4b:c7:ae:0e:dc:67:fe:
        ea:63:94:60:52:47:0a:16:36:54:0c:86:67:db:cc:50:eb:46:
        cc:b2:01:88:8f:54:31:89:5d:b0:bd:4a:99:45:86:42:b5:77:
        33:86:15:79:0b:e0:27:dc:46:cd:a0:80:5f:d1:77:d4:1b:9d:
        6e:e4:ca:da:36:b1:0f:81:b6:62:1b:14:9b:0d:9d:1f:4b:21:
        4b:f2:37:b6:66:49:2c:a3:d2:18:f9:1b:4d:68:aa:cc:74:5e:
        b5:3c:7e:5b:51:bd:f6:e1:a7:a6:37:d8:ac:ef:86:cb:44:89:
        8d:09
-----BEGIN CERTIFICATE-----
MIIDLTCCApagAwIBAgIBBTANBgkqhkiG9w0BAQUFADBVMQswCQYDVQQGEwJHQjEk
MCIGA1UEChMbQ2VydGlmaWNhdGUgVHJhbnNwYXJlbmN5IENBMQ4wDAYDVQQIEwVX
YWxlczEQMA4GA1UEBxMHRXJ3IFdlbjAeFw0xMjA2MDEwMDAwMDBaFw0yMjA2MDEw
MDAwMDBaMFIxCzAJBgNVBAYTAkdCMSEwHwYDVQQKExhDZXJ0aWZpY2F0ZSBUcmFu
c3BhcmVuY3kxDjAMBgNVBAgTBVdhbGVzMRAwDgYDVQQHEwdFcncgV2VuMIGfMA0G
CSqGSIb3DQEBAQUAA4GNADCBiQKBgQC1YSSigwJBQucvYw8iTJULG4/d1Hyk++Mq
daTHiBtThq9BFqLOUbP8bfGwS8/IReHPXoY9a98hAdNHWI/GA9tCQSiDKeinipDe
vJaMCHZtRz64bxrrP5+qTIzxcFHzSyahH86mV82e9zvFdksIGm2c2LuNSpwcSWHD
maWOosHkOwIDAQABo4IBDjCCAQowHQYDVR0OBBYEFCXynMAC5VXB9QdMlQG/rUOW
70thMH0GA1UdIwR2MHSAFNbdHf1VkPgUo7IZxBss16pDptproVmkVzBVMQswCQYD
VQQGEwJHQjEkMCIGA1UEChMbQ2VydGlmaWNhdGUgVHJhbnNwYXJlbmN5IENBMQ4w
DAYDVQQIEwVXYWxlczEQMA4GA1UEBxMHRXJ3IFdlboIBADAJBgNVHRMEAjAAMF8G
AyoDAQRYAAAAAQAAAAEAAAAABAMASDBGAiEAq4mPxoG5uBPnoOIyuN+Iks6vtoSy
rzH+4wlbry+edMsCIQDu1M3oVUJgs5xgZZ1LjYG/adVe+hDD0605IAmjz1a2hDAN
BgkqhkiG9w0BAQUFAAOBgQBaWjeY1VODXKOUxEvHrg7cZ/7qY5RgUkcKFjZUDIZn
28xQ60bMsgGIj1QxiV2wvUqZRYZCtXczhhV5C+An3EbNoIBf0XfUG51u5MraNrEP
gbZiGxSbDZ0fSyFL8je2Zkkso9IY+RtNaKrMdF61PH5bUb324aemN9is74bLRImN
CQ==
-----END CERTIFICATE-----
