Certificate:
    Data:
        Version: 3 (0x2)
        Serial Number: 7 (0x7)
    Signature Algorithm: sha1WithRSAEncryption
        Issuer: C=GB, O=Certificate Transparency CA, ST=Wales, L=Erw Wen
        Validity
            Not Before: Jun  1 00:00:00 2012 GMT
            Not After : Jun  1 00:00:00 2022 GMT
        Subject: C=GB, O=Certificate Transparency, ST=Wales, L=Erw Wen
        Subject Public Key Info:
            Public Key Algorithm: rsaEncryption
                Public-Key: (1024 bit)
                Modulus:
                    00:be:d8:89:3c:c8:f1:77:ef:c5:48:df:49:61:44:
                    3f:99:9a:ed:a9:04:71:99:2f:81:8b:f8:b6:1d:0d:
                    f1:9d:6e:ec:3d:59:6c:9b:43:e6:00:33:a5:01:c8:
                    cf:fc:c4:38:f4:9f:5e:db:36:62:aa:ae:cf:18:0e:
                    7c:9b:59:fc:4b:d4:65:c1:8c:40:6b:3b:70:cd:de:
                    52:d5:de:c4:2a:ae:f9:13:c2:17:35:92:c7:61:30:
                    f2:39:9d:e6:cc:d6:e7:5e:04:cc:ea:7d:7e:4b:df:
                    4b:ac:b1:6b:5f:e6:97:29:74:bc:a8:bc:b3:e8:46:
                    8d:ec:94:1e:94:5f:df:98:31
                Exponent: 65537 (0x10001)
        X509v3 extensions:
            X509v3 Subject Key Identifier: 
                A4:99:8F:6B:0A:BE:FD:0E:54:9B:D5:6F:22:1D:A9:76:D0:CE:57:D6
            X509v3 Authority Key Identifier: 
                keyid:36:33:12:99:DB:DC:38:9D:1C:CC:FE:31:C0:8B:89:32:50:1A:8F:7C
                DirName:/C=GB/O=Certificate Transparency CA/ST=Wales/L=Erw Wen
                serial:00

            X509v3 Basic Constraints: 
                CA:FALSE
            1.3.6.1.4.1.11129.2.4.3: critical
                ..
    Signature Algorithm: sha1WithRSAEncryption
         ba:cc:ef:72:c1:ae:51:a8:3f:d1:d3:f5:c7:6c:cd:64:60:10:
         e8:ab:ab:44:77:56:74:70:49:e5:21:3e:c5:4c:38:f6:12:72:
         3c:f9:4a:be:9b:6d:7b:b9:b4:02:1f:f3:9d:36:61:25:66:ab:
         a1:d6:ef:2a:3b:e6:6f:0a:9b:b3:1e:89:27:c9:7f:98:3a:51:
         b1:03:98:43:dd:a4:39:9b:4d:dc:30:9b:7c:22:b5:d3:1e:ee:
         d1:8a:5a:e2:52:5a:1c:3a:8b:e1:26:cf:53:d5:45:83:f6:84:
         f0:88:2b:95:0c:b5:fd:93:62:ea:2b:df:98:2b:c7:0d:27:3b:
         90:85
-----BEGIN CERTIFICATE-----
MIIC3zCCAkigAwIBAgIBBzANBgkqhkiG9w0BAQUFADBVMQswCQYDVQQGEwJHQjEk
MCIGA1UEChMbQ2VydGlmaWNhdGUgVHJhbnNwYXJlbmN5IENBMQ4wDAYDVQQIEwVX
YWxlczEQMA4GA1UEBxMHRXJ3IFdlbjAeFw0xMjA2MDEwMDAwMDBaFw0yMjA2MDEw
MDAwMDBaMFIxCzAJBgNVBAYTAkdCMSEwHwYDVQQKExhDZXJ0aWZpY2F0ZSBUcmFu
c3BhcmVuY3kxDjAMBgNVBAgTBVdhbGVzMRAwDgYDVQQHEwdFcncgV2VuMIGfMA0G
CSqGSIb3DQEBAQUAA4GNADCBiQKBgQC+2Ik8yPF378VI30lhRD+Zmu2pBHGZL4GL
+LYdDfGdbuw9WWybQ+YAM6UByM/8xDj0n17bNmKqrs8YDnybWfxL1GXBjEBrO3DN
3lLV3sQqrvkTwhc1ksdhMPI5nebM1udeBMzqfX5L30ussWtf5pcpdLyovLPoRo3s
lB6UX9+YMQIDAQABo4HBMIG+MB0GA1UdDgQWBBSkmY9rCr79DlSb1W8iHal20M5X
1jB9BgNVHSMEdjB0gBQ2MxKZ29w4nRzM/jHAi4kyUBqPfKFZpFcwVTELMAkGA1UE
BhMCR0IxJDAiBgNVBAoTG0NlcnRpZmljYXRlIFRyYW5zcGFyZW5jeSBDQTEOMAwG
A1UECBMFV2FsZXMxEDAOBgNVBAcTB0VydyBXZW6CAQAwCQYDVR0TBAIwADATBgor
BgEEAdZ5AgQDAQH/BAIFADANBgkqhkiG9w0BAQUFAAOBgQC6zO9ywa5RqD/R0/XH
bM1kYBDoq6tEd1Z0cEnlIT7FTDj2EnI8+Uq+m217ubQCH/OdNmElZquh1u8qO+Zv
CpuzHoknyX+YOlGxA5hD3aQ5m03cMJt8IrXTHu7RilriUlocOovhJs9T1UWD9oTw
iCuVDLX9k2LqK9+YK8cNJzuQhQ==
-----END CERTIFICATE-----
