Certificate:
    Data:
        Version: 3 (0x2)
        Serial Number: 3 (0x3)
        Signature Algorithm: sha1WithRSAEncryption
        Issuer: C=GB, O=Certificate Transparency ProtoCA, ST=Wales, L=Erw Wen
        Validity
            Not Before: Jun  1 00:00:00 2012 GMT
            Not After : Jun  1 00:00:00 2022 GMT
        Subject: C=GB, O=Certificate Transparency, ST=Wales, L=Erw Wen
        Subject Public Key Info:
            Public Key Algorithm: rsaEncryption
            RSA Public Key: (1024 bit)
                Modulus (1024 bit):
                    00:cb:fb:4d:9f:4a:e4:3d:7e:d8:64:cc:d7:ad:47:
                    7b:0c:9c:83:70:95:72:16:54:a7:3b:e6:2c:55:68:
                    5f:5d:41:ee:07:ef:e6:ef:6c:f9:5d:15:22:b3:19:
                    e9:43:30:ea:0b:b9:ff:56:c4:e8:d5:4c:e0:e5:8b:
                    af:e8:bb:bb:3c:bc:18:1b:69:8e:c9:8d:d0:96:92:
                    1d:73:24:cb:2d:57:f1:df:c2:c1:a4:67:02:c5:ba:
                    76:b1:41:f1:06:bc:56:83:ac:5f:6b:ae:98:0f:25:
                    b8:1d:4d:9e:26:08:ae:98:a2:31:8f:d7:36:d7:a3:
                    fa:cb:5e:39:89:c5:bb:01:01
                Exponent: 65537 (0x10001)
        X509v3 extensions:
            X509v3 Subject Key Identifier: 
                44:64:12:7B:92:B4:F8:53:24:D6:25:A5:B3:98:FA:0E:A2:A8:AA:14
            X509v3 Authority Key Identifier: 
                keyid:B3:09:BD:70:52:2D:76:5F:6D:81:DB:C6:D1:CD:13:C7:9C:50:47:58
                DirName:/C=GB/O=Certificate Transparency CA/ST=Wales/L=Erw Wen
                serial:01

            X509v3 Basic Constraints: 
                CA:FALSE
            1.2.3.2: critical
                poison
    Signature Algorithm: sha1WithRSAEncryption
        7a:f6:6f:22:21:28:2c:22:6b:4c:64:b1:54:1c:49:2b:c1:15:
        8c:e9:11:8a:e0:16:60:25:5c:22:58:6e:d5:93:1c:18:a2:54:
        f7:65:e7:0a:16:45:80:ba:d3:59:44:f5:33:6c:4f:ae:2a:e2:
        93:5d:ff:4f:06:31:b6:37:ad:a7:02:58:37:ed:55:03:a4:f2:
        99:af:98:b3:11:e6:51:8f:fc:ac:74:26:9b:42:92:67:03:b9:
        db:31:f1:8d:ba:79:bb:16:25:21:d9:44:fe:af:42:ad:47:87:
        e9:1e:2a:92:ba:9e:a6:2e:2a:c3:da:d2:51:30:7c:ba:a8:b2:
        7a:85
-----BEGIN CERTIFICATE-----
MIIC4TCCAkqgAwIBAgIBAzANBgkqhkiG9w0BAQUFADBaMQswCQYDVQQGEwJHQjEp
MCcGA1UEChMgQ2VydGlmaWNhdGUgVHJhbnNwYXJlbmN5IFByb3RvQ0ExDjAMBgNV
BAgTBVdhbGVzMRAwDgYDVQQHEwdFcncgV2VuMB4XDTEyMDYwMTAwMDAwMFoXDTIy
MDYwMTAwMDAwMFowUjELMAkGA1UEBhMCR0IxITAfBgNVBAoTGENlcnRpZmljYXRl
IFRyYW5zcGFyZW5jeTEOMAwGA1UECBMFV2FsZXMxEDAOBgNVBAcTB0VydyBXZW4w
gZ8wDQYJKoZIhvcNAQEBBQADgY0AMIGJAoGBAMv7TZ9K5D1+2GTM161Hewycg3CV
chZUpzvmLFVoX11B7gfv5u9s+V0VIrMZ6UMw6gu5/1bE6NVM4OWLr+i7uzy8GBtp
jsmN0JaSHXMkyy1X8d/CwaRnAsW6drFB8Qa8VoOsX2uumA8luB1NniYIrpiiMY/X
Ntej+steOYnFuwEBAgMBAAGjgb4wgbswHQYDVR0OBBYEFERkEnuStPhTJNYlpbOY
+g6iqKoUMH0GA1UdIwR2MHSAFLMJvXBSLXZfbYHbxtHNE8ecUEdYoVmkVzBVMQsw
CQYDVQQGEwJHQjEkMCIGA1UEChMbQ2VydGlmaWNhdGUgVHJhbnNwYXJlbmN5IENB
MQ4wDAYDVQQIEwVXYWxlczEQMA4GA1UEBxMHRXJ3IFdlboIBATAJBgNVHRMEAjAA
MBAGAyoDAgEB/wQGcG9pc29uMA0GCSqGSIb3DQEBBQUAA4GBAHr2byIhKCwia0xk
sVQcSSvBFYzpEYrgFmAlXCJYbtWTHBiiVPdl5woWRYC601lE9TNsT64q4pNd/08G
MbY3racCWDftVQOk8pmvmLMR5lGP/Kx0JptCkmcDudsx8Y26ebsWJSHZRP6vQq1H
h+keKpK6nqYuKsPa0lEwfLqosnqF
-----END CERTIFICATE-----
