Certificate:
    Data:
        Version: 3 (0x2)
        Serial Number: 5 (0x5)
        Signature Algorithm: sha1WithRSAEncryption
        Issuer: C=GB, O=Certificate Transparency CA, ST=Wales, L=Erw Wen
        Validity
            Not Before: Jun  1 00:00:00 2012 GMT
            Not After : Jun  1 00:00:00 2022 GMT
        Subject: C=GB, O=Certificate Transparency, ST=Wales, L=Erw Wen
        Subject Public Key Info:
            Public Key Algorithm: rsaEncryption
            RSA Public Key: (1024 bit)
                Modulus (1024 bit):
                    00:c6:86:34:89:92:f7:4b:2a:c9:34:7e:ba:e1:f6:
                    80:ed:b4:dc:02:57:91:3b:0a:f7:13:b9:ae:3b:94:
                    50:02:d5:49:bc:0d:74:0e:95:1f:31:bd:eb:7c:0f:
                    6c:66:99:03:90:77:90:89:97:9a:96:fa:73:ff:b8:
                    0d:0b:55:62:ca:08:60:0e:c7:c8:ad:ef:91:c8:19:
                    5a:69:4f:9d:37:f0:c0:b7:b7:98:28:99:7d:87:86:
                    4e:c7:df:ca:cf:01:cc:c3:22:c5:77:8b:58:ac:cf:
                    b0:79:0a:22:e1:64:92:e4:71:31:48:3d:b9:55:e3:
                    18:67:25:4c:be:65:32:84:b7
                Exponent: 65537 (0x10001)
        X509v3 extensions:
            X509v3 Subject Key Identifier: 
                38:39:46:38:D9:DD:32:9E:59:74:08:F8:BD:C8:E3:00:85:A9:63:8A
            X509v3 Authority Key Identifier: 
                keyid:B3:F6:3C:85:31:9B:1B:E4:1D:CD:FA:15:FF:18:13:84:DC:6E:18:EF
                DirName:/C=GB/O=Certificate Transparency CA/ST=Wales/L=Erw Wen
                serial:00

            X509v3 Basic Constraints: 
                CA:FALSE
    Signature Algorithm: sha1WithRSAEncryption
        26:f5:3c:e7:2f:dd:16:3e:41:40:d1:2e:84:7c:78:48:6d:2c:
        88:4c:b4:6f:ee:c6:3b:ec:81:fd:39:d9:dd:aa:5a:be:05:f3:
        72:0b:5e:a5:91:c6:cd:e6:26:12:b3:b2:9b:5e:ee:6f:81:00:
        ee:ab:d3:3d:91:c5:59:59:b1:67:55:24:2c:94:94:cd:5a:b5:
        0c:db:d2:6b:ac:26:3a:a2:ce:24:ad:6b:6b:f3:7b:97:12:c2:
        44:83:42:d6:03:6a:0d:96:c0:e6:42:85:6e:e6:42:e6:10:a2:
        31:2b:3f:7e:40:26:6a:58:62:82:d5:13:52:e9:c3:d4:e6:08:
        32:15
-----BEGIN CERTIFICATE-----
MIICyjCCAjOgAwIBAgIBBTANBgkqhkiG9w0BAQUFADBVMQswCQYDVQQGEwJHQjEk
MCIGA1UEChMbQ2VydGlmaWNhdGUgVHJhbnNwYXJlbmN5IENBMQ4wDAYDVQQIEwVX
YWxlczEQMA4GA1UEBxMHRXJ3IFdlbjAeFw0xMjA2MDEwMDAwMDBaFw0yMjA2MDEw
MDAwMDBaMFIxCzAJBgNVBAYTAkdCMSEwHwYDVQQKExhDZXJ0aWZpY2F0ZSBUcmFu
c3BhcmVuY3kxDjAMBgNVBAgTBVdhbGVzMRAwDgYDVQQHEwdFcncgV2VuMIGfMA0G
CSqGSIb3DQEBAQUAA4GNADCBiQKBgQDGhjSJkvdLKsk0frrh9oDttNwCV5E7CvcT
ua47lFAC1Um8DXQOlR8xvet8D2xmmQOQd5CJl5qW+nP/uA0LVWLKCGAOx8it75HI
GVppT5038MC3t5gomX2Hhk7H38rPAczDIsV3i1isz7B5CiLhZJLkcTFIPblV4xhn
JUy+ZTKEtwIDAQABo4GsMIGpMB0GA1UdDgQWBBQ4OUY42d0ynll0CPi9yOMAhalj
ijB9BgNVHSMEdjB0gBSz9jyFMZsb5B3N+hX/GBOE3G4Y76FZpFcwVTELMAkGA1UE
BhMCR0IxJDAiBgNVBAoTG0NlcnRpZmljYXRlIFRyYW5zcGFyZW5jeSBDQTEOMAwG
A1UECBMFV2FsZXMxEDAOBgNVBAcTB0VydyBXZW6CAQAwCQYDVR0TBAIwADANBgkq
hkiG9w0BAQUFAAOBgQAm9TznL90WPkFA0S6EfHhIbSyITLRv7sY77IH9Odndqlq+
BfNyC16lkcbN5iYSs7KbXu5vgQDuq9M9kcVZWbFnVSQslJTNWrUM29JrrCY6os4k
rWtr83uXEsJEg0LWA2oNlsDmQoVu5kLmEKIxKz9+QCZqWGKC1RNS6cPU5ggyFQ==
-----END CERTIFICATE-----
