Certificate:
    Data:
        Version: 3 (0x2)
        Serial Number: 2 (0x2)
    Signature Algorithm: sha1WithRSAEncryption
        Issuer: C=GB, O=Certificate Transparency Intermediate CA, ST=Wales, L=Erw Wen
        Validity
            Not Before: Jun  1 00:00:00 2012 GMT
            Not After : Jun  1 00:00:00 2022 GMT
        Subject: C=GB, O=Certificate Transparency, ST=Wales, L=Erw Wen
        Subject Public Key Info:
            Public Key Algorithm: rsaEncryption
                Public-Key: (1024 bit)
                Modulus:
                    00:e1:8b:c5:61:0d:3d:6e:df:e7:15:44:f6:30:76:
                    13:24:ef:50:01:a9:89:11:c0:38:e6:47:b3:a6:96:
                    e2:16:7b:a9:e5:f0:64:35:8e:23:67:ec:14:03:72:
                    c3:87:04:e3:c6:a3:79:4f:4a:4e:5a:cc:86:63:09:
                    43:4a:6f:7d:ee:af:b2:f5:0e:44:92:da:b0:c5:6a:
                    f2:66:5d:f7:aa:e2:e7:84:d1:d3:3e:38:a7:c8:d2:
                    4a:6b:e8:85:2f:c4:ce:1c:9a:26:5d:b5:13:60:55:
                    79:90:e5:25:77:ed:19:1f:54:7c:20:e2:c0:40:c6:
                    37:e1:6c:46:c1:50:eb:dc:e9
                Exponent: 65537 (0x10001)
        X509v3 extensions:
            X509v3 Subject Key Identifier: 
                82:DD:48:D4:4F:86:00:B3:6B:DA:7B:8E:D7:B5:72:79:72:FF:4F:2F
            X509v3 Authority Key Identifier: 
                keyid:0D:19:29:3B:89:DD:BC:E3:1E:DF:7F:85:45:D4:4E:59:3C:B1:63:74
                DirName:/C=GB/O=Certificate Transparency CA/ST=Wales/L=Erw Wen
                serial:09

            X509v3 Basic Constraints: 
                CA:FALSE
            1.3.6.1.4.1.11129.2.4.2: 
                .z.x.v..=...T..T..V.r....p.e..F.K.0.!.....<.........G0E.!.....Cr.......m.y.}..X.l.E.9.p7... ;..L......G.....e.*............9
    Signature Algorithm: sha1WithRSAEncryption
         2c:ed:e8:6c:cf:c8:56:57:76:f2:55:7e:a8:cd:40:1c:d9:3a:
         25:b2:9a:c6:56:77:fa:ed:1e:4a:ce:17:d5:24:b8:04:ef:c6:
         0e:49:9d:ac:ea:7c:8a:64:ca:2e:46:d2:00:3c:0d:44:f1:76:
         c4:31:c8:ae:f6:38:8f:12:aa:0b:48:77:6d:97:85:c8:b4:c4:
         28:55:b4:2e:98:b9:84:0c:e9:bb:5c:18:76:c6:64:7c:cc:c8:
         b7:01:2b:61:d2:e8:50:2e:32:de:44:4a:5a:8b:a0:99:18:7a:
         9b:61:a7:5b:a3:a3:a7:55:48:97:6a:84:d8:60:d0:84:f4:9d:
         38:88
-----BEGIN CERTIFICATE-----
MIIDZjCCAs+gAwIBAgIBAjANBgkqhkiG9w0BAQUFADBiMQswCQYDVQQGEwJHQjEx
MC8GA1UEChMoQ2VydGlmaWNhdGUgVHJhbnNwYXJlbmN5IEludGVybWVkaWF0ZSBD
QTEOMAwGA1UECBMFV2FsZXMxEDAOBgNVBAcTB0VydyBXZW4wHhcNMTIwNjAxMDAw
MDAwWhcNMjIwNjAxMDAwMDAwWjBSMQswCQYDVQQGEwJHQjEhMB8GA1UEChMYQ2Vy
dGlmaWNhdGUgVHJhbnNwYXJlbmN5MQ4wDAYDVQQIEwVXYWxlczEQMA4GA1UEBxMH
RXJ3IFdlbjCBnzANBgkqhkiG9w0BAQEFAAOBjQAwgYkCgYEA4YvFYQ09bt/nFUT2
MHYTJO9QAamJEcA45kezppbiFnup5fBkNY4jZ+wUA3LDhwTjxqN5T0pOWsyGYwlD
Sm997q+y9Q5EktqwxWryZl33quLnhNHTPjinyNJKa+iFL8TOHJomXbUTYFV5kOUl
d+0ZH1R8IOLAQMY34WxGwVDr3OkCAwEAAaOCATowggE2MB0GA1UdDgQWBBSC3UjU
T4YAs2vae47XtXJ5cv9PLzB9BgNVHSMEdjB0gBQNGSk7id284x7ff4VF1E5ZPLFj
dKFZpFcwVTELMAkGA1UEBhMCR0IxJDAiBgNVBAoTG0NlcnRpZmljYXRlIFRyYW5z
cGFyZW5jeSBDQTEOMAwGA1UECBMFV2FsZXMxEDAOBgNVBAcTB0VydyBXZW6CAQkw
CQYDVR0TBAIwADCBigYKKwYBBAHWeQIEAgR8BHoAeAB2AAw9n+AIVLrLVOMZVt9y
uQb3E3AOZYyoRhFLCTDBIfiUAAABPPPOm5AAAAQDAEcwRQIhANqy6uFDcv4Rt6qw
09dtj3nvfeiIWNpsvkXcOetwN/ETAiA7H7FMphSmwsEGR/yP2BvmZfAqgdbx8ume
AK+tpe6WOTANBgkqhkiG9w0BAQUFAAOBgQAs7ehsz8hWV3byVX6ozUAc2TolsprG
Vnf67R5KzhfVJLgE78YOSZ2s6nyKZMouRtIAPA1E8XbEMciu9jiPEqoLSHdtl4XI
tMQoVbQumLmEDOm7XBh2xmR8zMi3ASth0uhQLjLeREpai6CZGHqbYadbo6OnVUiX
aoTYYNCE9J04iA==
-----END CERTIFICATE-----
