Certificate:
    Data:
        Version: 3 (0x2)
        Serial Number: 2 (0x2)
        Signature Algorithm: sha1WithRSAEncryption
        Issuer: C=GB, O=Certificate Transparency Intermediate CA, ST=Wales, L=Erw Wen
        Validity
            Not Before: Jun  1 00:00:00 2012 GMT
            Not After : Jun  1 00:00:00 2022 GMT
        Subject: C=GB, O=Certificate Transparency, ST=Wales, L=Erw Wen
        Subject Public Key Info:
            Public Key Algorithm: rsaEncryption
            RSA Public Key: (1024 bit)
                Modulus (1024 bit):
                    00:ad:5a:99:4f:82:72:63:63:b6:4e:43:fd:c1:6c:
                    6a:0b:2b:55:88:d9:d2:d1:55:58:7f:42:0f:1c:4b:
                    39:ff:ec:be:c5:c3:c5:62:ca:0c:71:ca:92:9f:41:
                    e8:8e:2d:86:57:b5:5c:d9:f5:72:a9:24:ee:43:d4:
                    2c:44:e0:55:07:3e:39:e5:6c:de:13:4f:89:ca:e0:
                    53:56:99:b4:76:1a:e0:15:1a:4b:76:8f:a8:30:4c:
                    cc:a3:a0:30:c8:0b:a4:d3:49:6c:e4:81:e3:9e:bc:
                    b3:1e:05:20:2c:df:98:18:c4:3d:01:a0:a2:0e:d6:
                    1c:45:d6:ae:1e:a2:16:87:63
                Exponent: 65537 (0x10001)
        X509v3 extensions:
            X509v3 Subject Key Identifier: 
                CB:CB:2A:D0:07:93:D4:D5:B3:DA:98:58:CC:96:EE:16:8F:D5:2E:EA
            X509v3 Authority Key Identifier: 
                keyid:29:34:C5:5D:EC:22:31:3D:1F:52:75:61:30:78:B6:A2:D2:FD:07:97
                DirName:/C=GB/O=Certificate Transparency CA/ST=Wales/L=Erw Wen
                serial:04

            X509v3 Basic Constraints: 
                CA:FALSE
            1.2.3.1: 
                ...............G0E. I..3M..<.....v.&.0p...%..F..[....!.....O.#......5.Cegx...0..m.....
    Signature Algorithm: sha1WithRSAEncryption
        2a:c1:f2:67:66:28:b5:a9:6d:bf:f9:56:57:1b:b6:38:83:aa:
        7b:f9:69:ba:9e:cc:43:3c:fb:84:95:27:eb:7a:52:56:ee:fa:
        20:dc:d4:8a:10:b9:d8:e9:ca:c3:e0:22:ca:04:f2:8d:3a:93:
        48:12:71:c9:c9:04:03:f9:ac:bd:39:4d:4d:36:59:bc:39:c8:
        fe:3c:4d:88:db:b7:25:b8:47:20:bc:f1:a7:60:f6:45:a6:4f:
        93:58:d9:02:36:cc:c0:f8:a8:dd:63:7f:1c:b7:47:f1:83:90:
        6c:b9:4b:d6:2e:98:f0:d7:94:84:26:3e:63:3d:6b:1e:ed:21:
        32:61
-----BEGIN CERTIFICATE-----
MIIDOTCCAqKgAwIBAgIBAjANBgkqhkiG9w0BAQUFADBiMQswCQYDVQQGEwJHQjEx
MC8GA1UEChMoQ2VydGlmaWNhdGUgVHJhbnNwYXJlbmN5IEludGVybWVkaWF0ZSBD
QTEOMAwGA1UECBMFV2FsZXMxEDAOBgNVBAcTB0VydyBXZW4wHhcNMTIwNjAxMDAw
MDAwWhcNMjIwNjAxMDAwMDAwWjBSMQswCQYDVQQGEwJHQjEhMB8GA1UEChMYQ2Vy
dGlmaWNhdGUgVHJhbnNwYXJlbmN5MQ4wDAYDVQQIEwVXYWxlczEQMA4GA1UEBxMH
RXJ3IFdlbjCBnzANBgkqhkiG9w0BAQEFAAOBjQAwgYkCgYEArVqZT4JyY2O2TkP9
wWxqCytViNnS0VVYf0IPHEs5/+y+xcPFYsoMccqSn0Hoji2GV7Vc2fVyqSTuQ9Qs
ROBVBz455WzeE0+JyuBTVpm0dhrgFRpLdo+oMEzMo6AwyAuk00ls5IHjnryzHgUg
LN+YGMQ9AaCiDtYcRdauHqIWh2MCAwEAAaOCAQ0wggEJMB0GA1UdDgQWBBTLyyrQ
B5PU1bPamFjMlu4Wj9Uu6jB9BgNVHSMEdjB0gBQpNMVd7CIxPR9SdWEweLai0v0H
l6FZpFcwVTELMAkGA1UEBhMCR0IxJDAiBgNVBAoTG0NlcnRpZmljYXRlIFRyYW5z
cGFyZW5jeSBDQTEOMAwGA1UECBMFV2FsZXMxEDAOBgNVBAcTB0VydyBXZW6CAQQw
CQYDVR0TBAIwADBeBgMqAwEEVwAAAAEAAAABAAAAAAQDAEcwRQIgSd+OM00uhjza
l/wbGXbhJvEwcJ8V/iXM40auilu4+vkCIQC7lQ3hg0+fI/7K7crW0DX2Q2VneIvG
nDCu3m2RtY7oBTANBgkqhkiG9w0BAQUFAAOBgQAqwfJnZii1qW2/+VZXG7Y4g6p7
+Wm6nsxDPPuElSfrelJW7vog3NSKELnY6crD4CLKBPKNOpNIEnHJyQQD+ay9OU1N
Nlm8Ocj+PE2I27cluEcgvPGnYPZFpk+TWNkCNszA+KjdY38ct0fxg5BsuUvWLpjw
15SEJj5jPWse7SEyYQ==
-----END CERTIFICATE-----
