Certificate:
    Data:
        Version: 3 (0x2)
        Serial Number: 1 (0x1)
        Signature Algorithm: sha1WithRSAEncryption
        Issuer: C=GB, O=Certificate Transparency Intermediate CA, ST=Wales, L=Erw Wen
        Validity
            Not Before: Jun  1 00:00:00 2012 GMT
            Not After : Jun  1 00:00:00 2022 GMT
        Subject: C=GB, O=Certificate Transparency, ST=Wales, L=Erw Wen
        Subject Public Key Info:
            Public Key Algorithm: rsaEncryption
            RSA Public Key: (1024 bit)
                Modulus (1024 bit):
                    00:a7:dc:38:3f:97:89:75:08:02:2d:40:6b:9e:02:
                    e2:93:01:8e:bd:45:35:6f:3c:1f:e1:11:f5:7e:51:
                    7e:20:5a:9c:2a:62:00:7c:0b:20:9a:22:e8:f6:bb:
                    da:4d:70:35:8b:59:7c:59:53:57:81:1c:6f:1a:0b:
                    ea:0d:03:76:93:4b:7b:06:ed:0b:9d:f8:70:1c:dc:
                    38:65:4d:b3:77:59:5e:2f:08:c8:43:b2:d9:9d:a1:
                    64:b2:5b:91:98:0e:f3:e2:e7:d0:68:1f:75:3a:4c:
                    2b:1d:a3:86:5c:e2:e4:0b:9e:63:28:ca:5c:ca:d6:
                    5d:6d:9c:84:d7:a3:2d:89:89
                Exponent: 65537 (0x10001)
        X509v3 extensions:
            X509v3 Subject Key Identifier: 
                00:72:0B:CC:1C:F2:13:09:F7:EB:D5:9B:7A:6E:89:65:1D:9F:03:6F
            X509v3 Authority Key Identifier: 
                keyid:BA:77:60:93:04:D7:2E:17:A6:3F:66:C6:28:63:49:60:AF:D5:82:30
                DirName:/C=GB/O=Certificate Transparency CA/ST=Wales/L=Erw Wen
                serial:07

            X509v3 Basic Constraints: 
                CA:FALSE
    Signature Algorithm: sha1WithRSAEncryption
        79:a7:c1:c7:5a:ab:37:12:57:dc:65:2b:a4:11:1e:32:29:7a:
        d4:b0:45:69:5b:20:22:bc:41:fe:52:84:b7:be:f0:73:43:6d:
        9e:6a:67:0d:d6:9b:d7:a8:c0:64:6d:85:79:5a:fa:3f:e4:0f:
        80:ac:d7:7f:e5:da:a9:9d:73:15:bb:5d:b3:0a:d9:ae:4b:41:
        45:21:e2:29:78:f6:8d:2e:bb:28:a6:ad:1e:ce:06:9a:86:99:
        45:66:b4:a7:4f:8c:4f:29:0e:cd:42:6d:02:bd:36:6f:40:d0:
        4c:0b:14:08:ac:0d:89:cf:6e:74:03:ed:2e:b1:95:32:15:fc:
        90:3e
-----BEGIN CERTIFICATE-----
MIIC1zCCAkCgAwIBAgIBATANBgkqhkiG9w0BAQUFADBiMQswCQYDVQQGEwJHQjEx
MC8GA1UEChMoQ2VydGlmaWNhdGUgVHJhbnNwYXJlbmN5IEludGVybWVkaWF0ZSBD
QTEOMAwGA1UECBMFV2FsZXMxEDAOBgNVBAcTB0VydyBXZW4wHhcNMTIwNjAxMDAw
MDAwWhcNMjIwNjAxMDAwMDAwWjBSMQswCQYDVQQGEwJHQjEhMB8GA1UEChMYQ2Vy
dGlmaWNhdGUgVHJhbnNwYXJlbmN5MQ4wDAYDVQQIEwVXYWxlczEQMA4GA1UEBxMH
RXJ3IFdlbjCBnzANBgkqhkiG9w0BAQEFAAOBjQAwgYkCgYEAp9w4P5eJdQgCLUBr
ngLikwGOvUU1bzwf4RH1flF+IFqcKmIAfAsgmiLo9rvaTXA1i1l8WVNXgRxvGgvq
DQN2k0t7Bu0LnfhwHNw4ZU2zd1leLwjIQ7LZnaFksluRmA7z4ufQaB91OkwrHaOG
XOLkC55jKMpcytZdbZyE16MtiYkCAwEAAaOBrDCBqTAdBgNVHQ4EFgQUAHILzBzy
Ewn369Wbem6JZR2fA28wfQYDVR0jBHYwdIAUundgkwTXLhemP2bGKGNJYK/VgjCh
WaRXMFUxCzAJBgNVBAYTAkdCMSQwIgYDVQQKExtDZXJ0aWZpY2F0ZSBUcmFuc3Bh
cmVuY3kgQ0ExDjAMBgNVBAgTBVdhbGVzMRAwDgYDVQQHEwdFcncgV2VuggEHMAkG
A1UdEwQCMAAwDQYJKoZIhvcNAQEFBQADgYEAeafBx1qrNxJX3GUrpBEeMil61LBF
aVsgIrxB/lKEt77wc0NtnmpnDdab16jAZG2FeVr6P+QPgKzXf+XaqZ1zFbtdswrZ
rktBRSHiKXj2jS67KKatHs4GmoaZRWa0p0+MTykOzUJtAr02b0DQTAsUCKwNic9u
dAPtLrGVMhX8kD4=
-----END CERTIFICATE-----
