Certificate:
    Data:
        Version: 3 (0x2)
        Serial Number: 6 (0x6)
        Signature Algorithm: sha1WithRSAEncryption
        Issuer: C=GB, O=Certificate Transparency CA, ST=Wales, L=Erw Wen
        Validity
            Not Before: Jun  1 00:00:00 2012 GMT
            Not After : Jun  1 00:00:00 2022 GMT
        Subject: C=GB, O=Certificate Transparency, ST=Wales, L=Erw Wen
        Subject Public Key Info:
            Public Key Algorithm: rsaEncryption
            RSA Public Key: (1024 bit)
                Modulus (1024 bit):
                    00:cb:fb:4d:9f:4a:e4:3d:7e:d8:64:cc:d7:ad:47:
                    7b:0c:9c:83:70:95:72:16:54:a7:3b:e6:2c:55:68:
                    5f:5d:41:ee:07:ef:e6:ef:6c:f9:5d:15:22:b3:19:
                    e9:43:30:ea:0b:b9:ff:56:c4:e8:d5:4c:e0:e5:8b:
                    af:e8:bb:bb:3c:bc:18:1b:69:8e:c9:8d:d0:96:92:
                    1d:73:24:cb:2d:57:f1:df:c2:c1:a4:67:02:c5:ba:
                    76:b1:41:f1:06:bc:56:83:ac:5f:6b:ae:98:0f:25:
                    b8:1d:4d:9e:26:08:ae:98:a2:31:8f:d7:36:d7:a3:
                    fa:cb:5e:39:89:c5:bb:01:01
                Exponent: 65537 (0x10001)
        X509v3 extensions:
            X509v3 Subject Key Identifier: 
                44:64:12:7B:92:B4:F8:53:24:D6:25:A5:B3:98:FA:0E:A2:A8:AA:14
            X509v3 Authority Key Identifier: 
                keyid:D6:DD:1D:FD:55:90:F8:14:A3:B2:19:C4:1B:2C:D7:AA:43:A6:DA:6B
                DirName:/C=GB/O=Certificate Transparency CA/ST=Wales/L=Erw Wen
                serial:00

            X509v3 Basic Constraints: 
                CA:FALSE
            1.2.3.1: 
                ...............H0F.!............2..........1...[./.t..!.....UB`..`e.K...i.^.....9 ...V..
    Signature Algorithm: sha1WithRSAEncryption
        23:d4:26:74:2a:99:31:91:8a:3c:e9:9e:29:55:b2:3b:cf:bd:
        4f:09:5c:d7:cd:bd:38:a5:ad:49:ff:6f:0b:c1:3c:b0:07:17:
        8f:1c:0c:b2:49:7f:31:10:e6:73:f5:53:19:61:90:89:bd:ff:
        9d:2c:de:7a:ba:6d:8c:fa:58:c0:80:20:a7:c9:5c:2f:5a:e7:
        22:36:6c:8d:03:24:d1:95:84:3c:ca:c3:3e:a1:54:13:59:55:
        8d:b8:e3:0d:58:23:23:b1:b7:6f:70:1b:43:82:f3:da:6f:89:
        df:a0:73:22:9d:52:e6:d3:b5:2b:9e:9a:86:81:4e:a9:37:1b:
        6c:92
-----BEGIN CERTIFICATE-----
MIIDLTCCApagAwIBAgIBBjANBgkqhkiG9w0BAQUFADBVMQswCQYDVQQGEwJHQjEk
MCIGA1UEChMbQ2VydGlmaWNhdGUgVHJhbnNwYXJlbmN5IENBMQ4wDAYDVQQIEwVX
YWxlczEQMA4GA1UEBxMHRXJ3IFdlbjAeFw0xMjA2MDEwMDAwMDBaFw0yMjA2MDEw
MDAwMDBaMFIxCzAJBgNVBAYTAkdCMSEwHwYDVQQKExhDZXJ0aWZpY2F0ZSBUcmFu
c3BhcmVuY3kxDjAMBgNVBAgTBVdhbGVzMRAwDgYDVQQHEwdFcncgV2VuMIGfMA0G
CSqGSIb3DQEBAQUAA4GNADCBiQKBgQDL+02fSuQ9fthkzNetR3sMnINwlXIWVKc7
5ixVaF9dQe4H7+bvbPldFSKzGelDMOoLuf9WxOjVTODli6/ou7s8vBgbaY7JjdCW
kh1zJMstV/HfwsGkZwLFunaxQfEGvFaDrF9rrpgPJbgdTZ4mCK6YojGP1zbXo/rL
XjmJxbsBAQIDAQABo4IBDjCCAQowHQYDVR0OBBYEFERkEnuStPhTJNYlpbOY+g6i
qKoUMH0GA1UdIwR2MHSAFNbdHf1VkPgUo7IZxBss16pDptproVmkVzBVMQswCQYD
VQQGEwJHQjEkMCIGA1UEChMbQ2VydGlmaWNhdGUgVHJhbnNwYXJlbmN5IENBMQ4w
DAYDVQQIEwVXYWxlczEQMA4GA1UEBxMHRXJ3IFdlboIBADAJBgNVHRMEAjAAMF8G
AyoDAQRYAAAAAQAAAAEAAAAABAMASDBGAiEAq4mPxoG5uBPnoOIyuN+Iks6vtoSy
rzH+4wlbry+edMsCIQDu1M3oVUJgs5xgZZ1LjYG/adVe+hDD0605IAmjz1a2hDAN
BgkqhkiG9w0BAQUFAAOBgQAj1CZ0KpkxkYo86Z4pVbI7z71PCVzXzb04pa1J/28L
wTywBxePHAyySX8xEOZz9VMZYZCJvf+dLN56um2M+ljAgCCnyVwvWuciNmyNAyTR
lYQ8ysM+oVQTWVWNuOMNWCMjsbdvcBtDgvPab4nfoHMinVLm07UrnpqGgU6pNxts
kg==
-----END CERTIFICATE-----
