Certificate:
    Data:
        Version: 3 (0x2)
        Serial Number: 2 (0x2)
        Signature Algorithm: sha1WithRSAEncryption
        Issuer: C=GB, O=Certificate Transparency Intermediate PreCA, ST=Wales, L=Erw Wen
        Validity
            Not Before: Jun  1 00:00:00 2012 GMT
            Not After : Jun  1 00:00:00 2022 GMT
        Subject: C=GB, O=Certificate Transparency, ST=Wales, L=Erw Wen
        Subject Public Key Info:
            Public Key Algorithm: rsaEncryption
            RSA Public Key: (1024 bit)
                Modulus (1024 bit):
                    00:d3:2e:e6:2c:1a:1f:f9:24:6c:05:e0:3d:d7:e3:
                    5d:36:4e:2d:6d:b1:86:44:8c:ac:16:18:92:f6:84:
                    93:4d:b3:90:15:bc:23:7b:27:c2:df:dd:07:ec:37:
                    e5:b3:ba:d9:e8:f0:6c:70:63:5c:55:fe:c2:f7:18:
                    03:09:70:04:13:31:44:b9:db:c5:e6:40:96:85:d5:
                    50:56:e9:ba:d4:7a:9b:78:d6:d5:09:c0:8e:33:b7:
                    a3:1d:ba:07:92:9d:25:23:67:86:e0:a6:b5:5f:18:
                    ad:b8:bc:34:2c:34:56:2e:4e:c9:ce:c0:37:a4:b4:
                    91:27:3a:93:13:ab:27:37:c5
                Exponent: 65537 (0x10001)
        X509v3 extensions:
            X509v3 Subject Key Identifier: 
                25:1B:1B:9E:2A:9E:40:73:FB:1A:9E:06:27:A7:F2:09:EE:70:D7:61
            X509v3 Authority Key Identifier: 
                keyid:C0:38:36:93:88:64:34:C9:E9:CF:64:ED:14:E9:B5:76:BA:C0:C7:AD
                DirName:/C=GB/O=Certificate Transparency Intermediate CA/ST=Wales/L=Erw Wen
                serial:00

            X509v3 Basic Constraints: 
                CA:FALSE
            1.2.3.2: critical
                poison
    Signature Algorithm: sha1WithRSAEncryption
        88:d9:be:df:48:1a:43:e8:75:77:8f:90:02:03:6d:d5:db:b6:
        b1:af:8a:90:0a:d3:a0:d6:71:fd:5d:48:eb:9a:5b:8f:34:1a:
        13:ca:8e:cc:8e:da:bd:61:37:b4:0b:ae:08:33:c5:cc:6c:03:
        6c:67:b2:a9:ae:da:51:d1:26:b7:8a:dd:b2:ed:e9:9f:fc:78:
        09:01:0a:b7:56:ef:be:2e:72:0c:f2:7b:d6:0f:7d:7a:12:6b:
        81:2d:87:dd:fc:e5:74:5e:72:4d:0c:62:52:3c:68:5c:a5:f1:
        c9:84:4b:3e:4c:18:81:e0:f3:a9:fa:37:1a:9f:2c:63:61:21:
        08:bd
-----BEGIN CERTIFICATE-----
MIIC/DCCAmWgAwIBAgIBAjANBgkqhkiG9w0BAQUFADBlMQswCQYDVQQGEwJHQjE0
MDIGA1UEChMrQ2VydGlmaWNhdGUgVHJhbnNwYXJlbmN5IEludGVybWVkaWF0ZSBQ
cmVDQTEOMAwGA1UECBMFV2FsZXMxEDAOBgNVBAcTB0VydyBXZW4wHhcNMTIwNjAx
MDAwMDAwWhcNMjIwNjAxMDAwMDAwWjBSMQswCQYDVQQGEwJHQjEhMB8GA1UEChMY
Q2VydGlmaWNhdGUgVHJhbnNwYXJlbmN5MQ4wDAYDVQQIEwVXYWxlczEQMA4GA1UE
BxMHRXJ3IFdlbjCBnzANBgkqhkiG9w0BAQEFAAOBjQAwgYkCgYEA0y7mLBof+SRs
BeA91+NdNk4tbbGGRIysFhiS9oSTTbOQFbwjeyfC390H7Dfls7rZ6PBscGNcVf7C
9xgDCXAEEzFEudvF5kCWhdVQVum61HqbeNbVCcCOM7ejHboHkp0lI2eG4Ka1Xxit
uLw0LDRWLk7JzsA3pLSRJzqTE6snN8UCAwEAAaOBzjCByzAdBgNVHQ4EFgQUJRsb
niqeQHP7Gp4GJ6fyCe5w12EwgYwGA1UdIwSBhDCBgYAUwDg2k4hkNMnpz2TtFOm1
drrAx62hZqRkMGIxCzAJBgNVBAYTAkdCMTEwLwYDVQQKEyhDZXJ0aWZpY2F0ZSBU
cmFuc3BhcmVuY3kgSW50ZXJtZWRpYXRlIENBMQ4wDAYDVQQIEwVXYWxlczEQMA4G
A1UEBxMHRXJ3IFdlboIBADAJBgNVHRMEAjAAMBAGAyoDAgEB/wQGcG9pc29uMA0G
CSqGSIb3DQEBBQUAA4GBAIjZvt9IGkPodXePkAIDbdXbtrGvipAK06DWcf1dSOua
W480GhPKjsyO2r1hN7QLrggzxcxsA2xnsqmu2lHRJreK3bLt6Z/8eAkBCrdW774u
cgzye9YPfXoSa4Eth9385XReck0MYlI8aFyl8cmESz5MGIHg86n6NxqfLGNhIQi9
-----END CERTIFICATE-----
