Certificate:
    Data:
        Version: 3 (0x2)
        Serial Number: 2 (0x2)
        Signature Algorithm: sha1WithRSAEncryption
        Issuer: C=GB, O=Certificate Transparency CA, ST=Wales, L=Erw Wen
        Validity
            Not Before: Jun  1 00:00:00 2012 GMT
            Not After : Jun  1 00:00:00 2022 GMT
        Subject: C=GB, O=Certificate Transparency, ST=Wales, L=Erw Wen
        Subject Public Key Info:
            Public Key Algorithm: rsaEncryption
            RSA Public Key: (1024 bit)
                Modulus (1024 bit):
                    00:b8:74:22:67:89:8b:99:ba:6b:fd:6e:6f:7a:da:
                    8e:54:33:7f:58:fe:b7:22:7c:46:24:84:37:ba:5f:
                    89:b0:07:cb:e1:ec:b4:54:5b:38:ed:23:fd:db:f6:
                    b9:74:2c:af:b6:38:15:7f:68:18:47:76:a1:b3:8a:
                    b3:93:18:dd:d7:34:48:9b:4d:75:01:17:cd:83:a2:
                    20:a7:b5:2f:29:5d:1e:18:57:14:69:a5:81:c2:3c:
                    68:c5:7d:97:37:61:d9:78:7a:09:1f:b5:86:49:36:
                    b1:66:53:5e:21:b4:27:e3:c6:d6:90:b2:e9:1a:87:
                    f3:6b:7e:c2:6f:59:ce:53:b5
                Exponent: 65537 (0x10001)
        X509v3 extensions:
            X509v3 Subject Key Identifier: 
                11:84:E1:18:7C:87:95:6D:FF:C3:1D:D0:52:1F:F5:64:EF:BE:AE:8D
            X509v3 Authority Key Identifier: 
                keyid:A3:B8:D8:9B:A2:69:0D:FB:48:BB:BF:87:C1:03:9D:DC:E5:62:56:C6
                DirName:/C=GB/O=Certificate Transparency CA/ST=Wales/L=Erw Wen
                serial:00

            X509v3 Basic Constraints: 
                CA:FALSE
    Signature Algorithm: sha1WithRSAEncryption
        29:2e:cf:6e:46:c7:a0:bc:d6:90:51:73:92:77:71:03:85:36:
        33:41:c0:a9:04:96:37:27:97:07:ae:23:cc:51:28:a4:bd:ea:
        0d:48:0e:d0:20:6b:39:e3:a7:7a:2b:0c:49:b0:27:1f:41:40:
        ab:75:c1:de:57:ab:a4:98:e0:94:59:b4:79:cf:92:a4:d5:d5:
        dd:5c:be:3f:0a:11:e2:5f:04:07:8d:f8:8f:c3:88:b6:1b:86:
        7a:8d:e4:62:16:c0:e1:7c:31:fc:7d:80:03:ec:c3:7b:e2:22:
        92:f8:42:42:ab:87:fb:08:bd:4d:fa:3c:1b:9c:e4:d3:ee:66:
        67:da
-----BEGIN CERTIFICATE-----
MIICyjCCAjOgAwIBAgIBAjANBgkqhkiG9w0BAQUFADBVMQswCQYDVQQGEwJHQjEk
MCIGA1UEChMbQ2VydGlmaWNhdGUgVHJhbnNwYXJlbmN5IENBMQ4wDAYDVQQIEwVX
YWxlczEQMA4GA1UEBxMHRXJ3IFdlbjAeFw0xMjA2MDEwMDAwMDBaFw0yMjA2MDEw
MDAwMDBaMFIxCzAJBgNVBAYTAkdCMSEwHwYDVQQKExhDZXJ0aWZpY2F0ZSBUcmFu
c3BhcmVuY3kxDjAMBgNVBAgTBVdhbGVzMRAwDgYDVQQHEwdFcncgV2VuMIGfMA0G
CSqGSIb3DQEBAQUAA4GNADCBiQKBgQC4dCJniYuZumv9bm962o5UM39Y/rcifEYk
hDe6X4mwB8vh7LRUWzjtI/3b9rl0LK+2OBV/aBhHdqGzirOTGN3XNEibTXUBF82D
oiCntS8pXR4YVxRppYHCPGjFfZc3Ydl4egkftYZJNrFmU14htCfjxtaQsukah/Nr
fsJvWc5TtQIDAQABo4GsMIGpMB0GA1UdDgQWBBQRhOEYfIeVbf/DHdBSH/Vk776u
jTB9BgNVHSMEdjB0gBSjuNibomkN+0i7v4fBA53c5WJWxqFZpFcwVTELMAkGA1UE
BhMCR0IxJDAiBgNVBAoTG0NlcnRpZmljYXRlIFRyYW5zcGFyZW5jeSBDQTEOMAwG
A1UECBMFV2FsZXMxEDAOBgNVBAcTB0VydyBXZW6CAQAwCQYDVR0TBAIwADANBgkq
hkiG9w0BAQUFAAOBgQApLs9uRsegvNaQUXOSd3EDhTYzQcCpBJY3J5cHriPMUSik
veoNSA7QIGs546d6KwxJsCcfQUCrdcHeV6ukmOCUWbR5z5Kk1dXdXL4/ChHiXwQH
jfiPw4i2G4Z6jeRiFsDhfDH8fYAD7MN74iKS+EJCq4f7CL1N+jwbnOTT7mZn2g==
-----END CERTIFICATE-----
