Certificate:
    Data:
        Version: 3 (0x2)
        Serial Number: 3 (0x3)
        Signature Algorithm: sha1WithRSAEncryption
        Issuer: C=GB, O=Certificate Transparency CA, ST=Wales, L=Erw Wen
        Validity
            Not Before: Jun  1 00:00:00 2012 GMT
            Not After : Jun  1 00:00:00 2022 GMT
        Subject: C=GB, O=Certificate Transparency, ST=Wales, L=Erw Wen
        Subject Public Key Info:
            Public Key Algorithm: rsaEncryption
            RSA Public Key: (1024 bit)
                Modulus (1024 bit):
                    00:cb:fb:4d:9f:4a:e4:3d:7e:d8:64:cc:d7:ad:47:
                    7b:0c:9c:83:70:95:72:16:54:a7:3b:e6:2c:55:68:
                    5f:5d:41:ee:07:ef:e6:ef:6c:f9:5d:15:22:b3:19:
                    e9:43:30:ea:0b:b9:ff:56:c4:e8:d5:4c:e0:e5:8b:
                    af:e8:bb:bb:3c:bc:18:1b:69:8e:c9:8d:d0:96:92:
                    1d:73:24:cb:2d:57:f1:df:c2:c1:a4:67:02:c5:ba:
                    76:b1:41:f1:06:bc:56:83:ac:5f:6b:ae:98:0f:25:
                    b8:1d:4d:9e:26:08:ae:98:a2:31:8f:d7:36:d7:a3:
                    fa:cb:5e:39:89:c5:bb:01:01
                Exponent: 65537 (0x10001)
        X509v3 extensions:
            X509v3 Subject Key Identifier: 
                44:64:12:7B:92:B4:F8:53:24:D6:25:A5:B3:98:FA:0E:A2:A8:AA:14
            X509v3 Authority Key Identifier: 
                keyid:D6:DD:1D:FD:55:90:F8:14:A3:B2:19:C4:1B:2C:D7:AA:43:A6:DA:6B
                DirName:/C=GB/O=Certificate Transparency CA/ST=Wales/L=Erw Wen
                serial:00

            X509v3 Basic Constraints: 
                CA:FALSE
            1.2.3.1: 
                ...............F0D. 7Q..4..M.....!"..b.7.W-.G..5..<.. ....(..c.....C.N......U!.i-)j...
    Signature Algorithm: sha1WithRSAEncryption
        2f:7c:5c:bb:1c:f4:d6:5f:0d:81:05:5e:69:82:4c:f6:97:c2:
        b1:44:5c:54:d7:3f:31:6c:2f:c9:bd:5b:75:3a:53:ba:15:45:
        4c:ea:68:f5:75:46:4a:e4:c5:a9:b6:ce:c1:af:c0:18:e6:60:
        3e:c3:07:da:6b:f6:f6:7e:15:bb:9d:02:60:94:2c:97:45:de:
        42:ec:a6:8a:6b:f9:b3:1c:29:41:87:c9:3d:bf:de:70:ac:b8:
        f1:73:e2:95:d1:d6:74:71:44:8a:a1:f9:66:dc:32:bb:68:c0:
        00:3d:d7:9c:7b:0b:64:67:cc:aa:37:fc:a2:b5:02:4c:e3:2f:
        94:8c
-----BEGIN CERTIFICATE-----
MIIDKzCCApSgAwIBAgIBAzANBgkqhkiG9w0BAQUFADBVMQswCQYDVQQGEwJHQjEk
MCIGA1UEChMbQ2VydGlmaWNhdGUgVHJhbnNwYXJlbmN5IENBMQ4wDAYDVQQIEwVX
YWxlczEQMA4GA1UEBxMHRXJ3IFdlbjAeFw0xMjA2MDEwMDAwMDBaFw0yMjA2MDEw
MDAwMDBaMFIxCzAJBgNVBAYTAkdCMSEwHwYDVQQKExhDZXJ0aWZpY2F0ZSBUcmFu
c3BhcmVuY3kxDjAMBgNVBAgTBVdhbGVzMRAwDgYDVQQHEwdFcncgV2VuMIGfMA0G
CSqGSIb3DQEBAQUAA4GNADCBiQKBgQDL+02fSuQ9fthkzNetR3sMnINwlXIWVKc7
5ixVaF9dQe4H7+bvbPldFSKzGelDMOoLuf9WxOjVTODli6/ou7s8vBgbaY7JjdCW
kh1zJMstV/HfwsGkZwLFunaxQfEGvFaDrF9rrpgPJbgdTZ4mCK6YojGP1zbXo/rL
XjmJxbsBAQIDAQABo4IBDDCCAQgwHQYDVR0OBBYEFERkEnuStPhTJNYlpbOY+g6i
qKoUMH0GA1UdIwR2MHSAFNbdHf1VkPgUo7IZxBss16pDptproVmkVzBVMQswCQYD
VQQGEwJHQjEkMCIGA1UEChMbQ2VydGlmaWNhdGUgVHJhbnNwYXJlbmN5IENBMQ4w
DAYDVQQIEwVXYWxlczEQMA4GA1UEBxMHRXJ3IFdlboIBADAJBgNVHRMEAjAAMF0G
AyoDAQRWAAAAAQAAAAEAAAAABAMARjBEAiA3Uf4WNIUGTZYd+uP6ISKk+GKhN5BX
LcpHz6E12uk85AIgFAe1mCgQEWOT3xLGuEOFTrHg57373FUhBWktKWr/uggwDQYJ
KoZIhvcNAQEFBQADgYEAL3xcuxz01l8NgQVeaYJM9pfCsURcVNc/MWwvyb1bdTpT
uhVFTOpo9XVGSuTFqbbOwa/AGOZgPsMH2mv29n4Vu50CYJQsl0XeQuymimv5sxwp
QYfJPb/ecKy48XPildHWdHFEiqH5Ztwyu2jAAD3XnHsLZGfMqjf8orUCTOMvlIw=
-----END CERTIFICATE-----
