Certificate:
    Data:
        Version: 3 (0x2)
        Serial Number: 3 (0x3)
    Signature Algorithm: sha1WithRSAEncryption
        Issuer: C=GB, O=Certificate Transparency Intermediate CA, ST=Wales, L=Erw Wen
        Validity
            Not Before: Jun  1 00:00:00 2012 GMT
            Not After : Jun  1 00:00:00 2022 GMT
        Subject: C=GB, O=Certificate Transparency, ST=Wales, L=Erw Wen
        Subject Public Key Info:
            Public Key Algorithm: rsaEncryption
                Public-Key: (1024 bit)
                Modulus:
                    00:c1:2e:c3:f9:bf:bf:6b:5f:00:ae:2d:7b:10:b0:
                    4f:5c:43:86:5c:7b:46:7e:f1:e8:0d:13:83:a1:fc:
                    b6:a1:ca:81:e1:97:3a:42:41:7f:11:71:39:ad:f1:
                    4a:b2:0e:3f:05:98:1c:0d:2b:d5:64:3e:76:23:a5:
                    8e:de:a4:7a:e7:21:19:da:45:22:7d:cb:a8:25:c3:
                    2e:0c:90:ec:ac:71:01:74:07:c6:3f:a4:db:ea:5a:
                    72:ab:63:75:cf:ce:f1:52:ac:1f:73:54:2c:a6:6f:
                    2d:50:f0:7c:70:a6:fd:9f:a4:53:69:be:db:2c:77:
                    5d:b8:a7:40:51:1a:a6:9f:c7
                Exponent: 65537 (0x10001)
        X509v3 extensions:
            X509v3 Subject Key Identifier: 
                09:E3:64:46:D6:F0:F2:B9:8C:25:27:A5:5C:1A:2A:37:DE:3B:F3:6C
            X509v3 Authority Key Identifier: 
                keyid:0D:19:29:3B:89:DD:BC:E3:1E:DF:7F:85:45:D4:4E:59:3C:B1:63:74
                DirName:/C=GB/O=Certificate Transparency CA/ST=Wales/L=Erw Wen
                serial:09

            X509v3 Basic Constraints: 
                CA:FALSE
            1.3.6.1.4.1.11129.2.4.2: 
                .{.y.w..=...T..T..V.r....p.e..F.K.0.!.....<...0.....H0F.!....:..........N-.:?&..L....:..q..!.....7......P.d.O...Fg?..u...K.jD
    Signature Algorithm: sha1WithRSAEncryption
         4e:76:1b:49:f5:7c:73:c4:db:20:f9:14:e2:5a:ae:33:2f:6f:
         23:29:9e:0b:0f:87:c3:df:fa:69:35:31:d5:66:aa:d6:cb:2b:
         6b:3f:16:d3:3c:87:09:a7:06:03:96:17:27:cd:a3:70:d4:b4:
         2e:17:a0:3e:bf:b3:ef:8e:cc:6a:b4:b9:87:ff:3e:2f:0d:68:
         e3:d8:d5:37:f7:51:6f:ef:7f:0b:1c:b0:52:40:2c:74:83:8c:
         85:5b:48:8c:d1:86:c4:b5:0f:d5:30:68:b4:6c:b2:71:80:af:
         80:9c:88:2b:cc:02:3e:19:7a:06:88:be:9c:ba:77:69:34:d2:
         be:b6
-----BEGIN CERTIFICATE-----
MIIDZzCCAtCgAwIBAgIBAzANBgkqhkiG9w0BAQUFADBiMQswCQYDVQQGEwJHQjEx
MC8GA1UEChMoQ2VydGlmaWNhdGUgVHJhbnNwYXJlbmN5IEludGVybWVkaWF0ZSBD
QTEOMAwGA1UECBMFV2FsZXMxEDAOBgNVBAcTB0VydyBXZW4wHhcNMTIwNjAxMDAw
MDAwWhcNMjIwNjAxMDAwMDAwWjBSMQswCQYDVQQGEwJHQjEhMB8GA1UEChMYQ2Vy
dGlmaWNhdGUgVHJhbnNwYXJlbmN5MQ4wDAYDVQQIEwVXYWxlczEQMA4GA1UEBxMH
RXJ3IFdlbjCBnzANBgkqhkiG9w0BAQEFAAOBjQAwgYkCgYEAwS7D+b+/a18Ari17
ELBPXEOGXHtGfvHoDRODofy2ocqB4Zc6QkF/EXE5rfFKsg4/BZgcDSvVZD52I6WO
3qR65yEZ2kUifcuoJcMuDJDsrHEBdAfGP6Tb6lpyq2N1z87xUqwfc1Qspm8tUPB8
cKb9n6RTab7bLHdduKdAURqmn8cCAwEAAaOCATswggE3MB0GA1UdDgQWBBQJ42RG
1vDyuYwlJ6VcGio33jvzbDB9BgNVHSMEdjB0gBQNGSk7id284x7ff4VF1E5ZPLFj
dKFZpFcwVTELMAkGA1UEBhMCR0IxJDAiBgNVBAoTG0NlcnRpZmljYXRlIFRyYW5z
cGFyZW5jeSBDQTEOMAwGA1UECBMFV2FsZXMxEDAOBgNVBAcTB0VydyBXZW6CAQkw
CQYDVR0TBAIwADCBiwYKKwYBBAHWeQIEAgR9BHsAeQB3AAw9n+AIVLrLVOMZVt9y
uQb3E3AOZYyoRhFLCTDBIfiUAAABPPPOnDAAAAQDAEgwRgIhAJfVxDqZ0eDt0qQP
oxmoTi2vOj8mhtZMtuTP/DrxhnEcAiEAqJn03zfqHITO2N1QBGQTT7nE+kZnP5uw
deYLG0ufakQwDQYJKoZIhvcNAQEFBQADgYEATnYbSfV8c8TbIPkU4lquMy9vIyme
Cw+Hw9/6aTUx1Waq1ssraz8W0zyHCacGA5YXJ82jcNS0LhegPr+z747MarS5h/8+
Lw1o49jVN/dRb+9/CxywUkAsdIOMhVtIjNGGxLUP1TBotGyycYCvgJyIK8wCPhl6
Boi+nLp3aTTSvrY=
-----END CERTIFICATE-----
