Certificate:
    Data:
        Version: 3 (0x2)
        Serial Number: 5 (0x5)
        Signature Algorithm: sha1WithRSAEncryption
        Issuer: C=GB, O=Certificate Transparency ProtoCA, ST=Wales, L=Erw Wen
        Validity
            Not Before: Jun  1 00:00:00 2012 GMT
            Not After : Jun  1 00:00:00 2022 GMT
        Subject: C=GB, O=Certificate Transparency, ST=Wales, L=Erw Wen
        Subject Public Key Info:
            Public Key Algorithm: rsaEncryption
            RSA Public Key: (1024 bit)
                Modulus (1024 bit):
                    00:b5:61:24:a2:83:02:41:42:e7:2f:63:0f:22:4c:
                    95:0b:1b:8f:dd:d4:7c:a4:fb:e3:2a:75:a4:c7:88:
                    1b:53:86:af:41:16:a2:ce:51:b3:fc:6d:f1:b0:4b:
                    cf:c8:45:e1:cf:5e:86:3d:6b:df:21:01:d3:47:58:
                    8f:c6:03:db:42:41:28:83:29:e8:a7:8a:90:de:bc:
                    96:8c:08:76:6d:47:3e:b8:6f:1a:eb:3f:9f:aa:4c:
                    8c:f1:70:51:f3:4b:26:a1:1f:ce:a6:57:cd:9e:f7:
                    3b:c5:76:4b:08:1a:6d:9c:d8:bb:8d:4a:9c:1c:49:
                    61:c3:99:a5:8e:a2:c1:e4:3b
                Exponent: 65537 (0x10001)
        X509v3 extensions:
            X509v3 Subject Key Identifier: 
                25:F2:9C:C0:02:E5:55:C1:F5:07:4C:95:01:BF:AD:43:96:EF:4B:61
            X509v3 Authority Key Identifier: 
                keyid:B3:09:BD:70:52:2D:76:5F:6D:81:DB:C6:D1:CD:13:C7:9C:50:47:58
                DirName:/C=GB/O=Certificate Transparency CA/ST=Wales/L=Erw Wen
                serial:01

            X509v3 Basic Constraints: 
                CA:FALSE
            1.2.3.2: critical
                poison
    Signature Algorithm: sha1WithRSAEncryption
        05:7e:80:0a:08:b9:5b:34:aa:fa:6b:8f:84:d1:e5:88:d5:9b:
        f5:cf:02:a6:00:4c:5d:b2:8d:cb:69:b9:18:b3:f1:94:22:5e:
        08:dd:0b:d4:fe:7d:4d:45:cf:1c:83:0f:c8:a8:a5:af:32:4d:
        dc:86:80:fe:30:87:17:9e:bf:d4:80:b8:16:1c:d6:40:8f:4a:
        0a:cc:9c:6a:3b:e2:bc:ad:ff:14:b2:e9:76:7d:ee:19:e4:ae:
        e2:80:8a:52:41:52:c2:ad:74:dd:a3:58:cc:ae:0a:40:12:bc:
        a9:42:a4:8c:c4:4d:1d:a7:a2:5a:77:6a:fd:9a:2f:5f:21:3d:
        e7:50
-----BEGIN CERTIFICATE-----
MIIC4TCCAkqgAwIBAgIBBTANBgkqhkiG9w0BAQUFADBaMQswCQYDVQQGEwJHQjEp
MCcGA1UEChMgQ2VydGlmaWNhdGUgVHJhbnNwYXJlbmN5IFByb3RvQ0ExDjAMBgNV
BAgTBVdhbGVzMRAwDgYDVQQHEwdFcncgV2VuMB4XDTEyMDYwMTAwMDAwMFoXDTIy
MDYwMTAwMDAwMFowUjELMAkGA1UEBhMCR0IxITAfBgNVBAoTGENlcnRpZmljYXRl
IFRyYW5zcGFyZW5jeTEOMAwGA1UECBMFV2FsZXMxEDAOBgNVBAcTB0VydyBXZW4w
gZ8wDQYJKoZIhvcNAQEBBQADgY0AMIGJAoGBALVhJKKDAkFC5y9jDyJMlQsbj93U
fKT74yp1pMeIG1OGr0EWos5Rs/xt8bBLz8hF4c9ehj1r3yEB00dYj8YD20JBKIMp
6KeKkN68lowIdm1HPrhvGus/n6pMjPFwUfNLJqEfzqZXzZ73O8V2SwgabZzYu41K
nBxJYcOZpY6iweQ7AgMBAAGjgb4wgbswHQYDVR0OBBYEFCXynMAC5VXB9QdMlQG/
rUOW70thMH0GA1UdIwR2MHSAFLMJvXBSLXZfbYHbxtHNE8ecUEdYoVmkVzBVMQsw
CQYDVQQGEwJHQjEkMCIGA1UEChMbQ2VydGlmaWNhdGUgVHJhbnNwYXJlbmN5IENB
MQ4wDAYDVQQIEwVXYWxlczEQMA4GA1UEBxMHRXJ3IFdlboIBATAJBgNVHRMEAjAA
MBAGAyoDAgEB/wQGcG9pc29uMA0GCSqGSIb3DQEBBQUAA4GBAAV+gAoIuVs0qvpr
j4TR5YjVm/XPAqYATF2yjctpuRiz8ZQiXgjdC9T+fU1FzxyDD8iopa8yTdyGgP4w
hxeev9SAuBYc1kCPSgrMnGo74ryt/xSy6XZ97hnkruKAilJBUsKtdN2jWMyuCkAS
vKlCpIzETR2nolp3av2aL18hPedQ
-----END CERTIFICATE-----
