Certificate:
    Data:
        Version: 3 (0x2)
        Serial Number: 2 (0x2)
        Signature Algorithm: sha1WithRSAEncryption
        Issuer: C=GB, O=Certificate Transparency Intermediate CA, ST=Wales, L=Erw Wen
        Validity
            Not Before: Jun  1 00:00:00 2012 GMT
            Not After : Jun  1 00:00:00 2022 GMT
        Subject: C=GB, O=Certificate Transparency, ST=Wales, L=Erw Wen
        Subject Public Key Info:
            Public Key Algorithm: rsaEncryption
            RSA Public Key: (1024 bit)
                Modulus (1024 bit):
                    00:a7:dc:38:3f:97:89:75:08:02:2d:40:6b:9e:02:
                    e2:93:01:8e:bd:45:35:6f:3c:1f:e1:11:f5:7e:51:
                    7e:20:5a:9c:2a:62:00:7c:0b:20:9a:22:e8:f6:bb:
                    da:4d:70:35:8b:59:7c:59:53:57:81:1c:6f:1a:0b:
                    ea:0d:03:76:93:4b:7b:06:ed:0b:9d:f8:70:1c:dc:
                    38:65:4d:b3:77:59:5e:2f:08:c8:43:b2:d9:9d:a1:
                    64:b2:5b:91:98:0e:f3:e2:e7:d0:68:1f:75:3a:4c:
                    2b:1d:a3:86:5c:e2:e4:0b:9e:63:28:ca:5c:ca:d6:
                    5d:6d:9c:84:d7:a3:2d:89:89
                Exponent: 65537 (0x10001)
        X509v3 extensions:
            X509v3 Subject Key Identifier: 
                00:72:0B:CC:1C:F2:13:09:F7:EB:D5:9B:7A:6E:89:65:1D:9F:03:6F
            X509v3 Authority Key Identifier: 
                keyid:BA:77:60:93:04:D7:2E:17:A6:3F:66:C6:28:63:49:60:AF:D5:82:30
                DirName:/C=GB/O=Certificate Transparency CA/ST=Wales/L=Erw Wen
                serial:07

            X509v3 Basic Constraints: 
                CA:FALSE
            1.3.6.1.4.1.11129.2.4.2: 
                .z.x.v..P.n.m..b.}ri..{.M...R...M.|C.o(...:...4.....G0E. G...K.N._.Z.2...NFi..+.eC......s.!..AY)....nK..B.>.......F...i..a.D
    Signature Algorithm: sha1WithRSAEncryption
        28:ea:7b:fb:58:72:99:b2:99:8c:a0:8f:2e:a6:5a:eb:46:8c:
        19:82:4e:19:53:99:1f:b0:c2:91:6f:69:2e:f5:5b:c8:6b:dc:
        d3:5f:35:bd:a1:a3:cf:cb:68:aa:a4:ce:0a:af:6b:b7:e9:9f:
        03:06:04:3f:cc:2b:c7:4f:78:07:9a:eb:d5:75:b3:08:9c:b3:
        fa:88:56:53:7d:de:28:4f:99:de:18:53:74:f5:1a:da:55:3a:
        f3:9d:ab:df:ad:0d:42:9d:08:c2:5e:eb:9f:11:84:d0:a3:6e:
        bb:ec:79:1a:44:bb:56:c0:17:6e:57:3d:b4:d9:61:95:12:ef:
        4e:c2
-----BEGIN CERTIFICATE-----
MIIDZjCCAs+gAwIBAgIBAjANBgkqhkiG9w0BAQUFADBiMQswCQYDVQQGEwJHQjEx
MC8GA1UEChMoQ2VydGlmaWNhdGUgVHJhbnNwYXJlbmN5IEludGVybWVkaWF0ZSBD
QTEOMAwGA1UECBMFV2FsZXMxEDAOBgNVBAcTB0VydyBXZW4wHhcNMTIwNjAxMDAw
MDAwWhcNMjIwNjAxMDAwMDAwWjBSMQswCQYDVQQGEwJHQjEhMB8GA1UEChMYQ2Vy
dGlmaWNhdGUgVHJhbnNwYXJlbmN5MQ4wDAYDVQQIEwVXYWxlczEQMA4GA1UEBxMH
RXJ3IFdlbjCBnzANBgkqhkiG9w0BAQEFAAOBjQAwgYkCgYEAp9w4P5eJdQgCLUBr
ngLikwGOvUU1bzwf4RH1flF+IFqcKmIAfAsgmiLo9rvaTXA1i1l8WVNXgRxvGgvq
DQN2k0t7Bu0LnfhwHNw4ZU2zd1leLwjIQ7LZnaFksluRmA7z4ufQaB91OkwrHaOG
XOLkC55jKMpcytZdbZyE16MtiYkCAwEAAaOCATowggE2MB0GA1UdDgQWBBQAcgvM
HPITCffr1Zt6bollHZ8DbzB9BgNVHSMEdjB0gBS6d2CTBNcuF6Y/ZsYoY0lgr9WC
MKFZpFcwVTELMAkGA1UEBhMCR0IxJDAiBgNVBAoTG0NlcnRpZmljYXRlIFRyYW5z
cGFyZW5jeSBDQTEOMAwGA1UECBMFV2FsZXMxEDAOBgNVBAcTB0VydyBXZW6CAQcw
CQYDVR0TBAIwADCBigYKKwYBBAHWeQIEAgR8BHoAeAB2AK1QmW4BbQKIYp99cmmP
03vcTR8a4VKxwMBNhHxDl28oAAABOpeTgTQAAAQDAEcwRQIgR/HI5UsGToRfDFrY
Msx/GE5GaYvAK+tlQ+/fCIkCDnMCIQD7QVkpAKHeim5LGwJCyD6vBrQCDq8DRrkO
yWkRx2HsRDANBgkqhkiG9w0BAQUFAAOBgQAo6nv7WHKZspmMoI8uplrrRowZgk4Z
U5kfsMKRb2ku9VvIa9zTXzW9oaPPy2iqpM4Kr2u36Z8DBgQ/zCvHT3gHmuvVdbMI
nLP6iFZTfd4oT5neGFN09RraVTrznavfrQ1CnQjCXuufEYTQo2677HkaRLtWwBdu
Vz202WGVEu9Owg==
-----END CERTIFICATE-----
